Archive member included to satisfy reference by file (symbol)

/home/jerryneedell/Microchip/SoftConsole-v6.4/arm-none-eabi-gcc/bin/../lib/gcc/arm-none-eabi/9.2.1/../../../../arm-none-eabi/lib/thumb/v7-m/nofp/libg_nano.a(lib_a-assert.o)
                              ./WebServer/httpserver-netconn.o (__assert_func)
/home/jerryneedell/Microchip/SoftConsole-v6.4/arm-none-eabi-gcc/bin/../lib/gcc/arm-none-eabi/9.2.1/../../../../arm-none-eabi/lib/thumb/v7-m/nofp/libg_nano.a(lib_a-errno.o)
                              ./CMSIS/startup_gcc/newlib_stubs.o (__errno)
/home/jerryneedell/Microchip/SoftConsole-v6.4/arm-none-eabi-gcc/bin/../lib/gcc/arm-none-eabi/9.2.1/../../../../arm-none-eabi/lib/thumb/v7-m/nofp/libg_nano.a(lib_a-exit.o)
                              /home/jerryneedell/Microchip/SoftConsole-v6.4/arm-none-eabi-gcc/bin/../lib/gcc/arm-none-eabi/9.2.1/../../../../arm-none-eabi/lib/thumb/v7-m/nofp/crt0.o (exit)
/home/jerryneedell/Microchip/SoftConsole-v6.4/arm-none-eabi-gcc/bin/../lib/gcc/arm-none-eabi/9.2.1/../../../../arm-none-eabi/lib/thumb/v7-m/nofp/libg_nano.a(lib_a-fprintf.o)
                              /home/jerryneedell/Microchip/SoftConsole-v6.4/arm-none-eabi-gcc/bin/../lib/gcc/arm-none-eabi/9.2.1/../../../../arm-none-eabi/lib/thumb/v7-m/nofp/libg_nano.a(lib_a-assert.o) (fiprintf)
/home/jerryneedell/Microchip/SoftConsole-v6.4/arm-none-eabi-gcc/bin/../lib/gcc/arm-none-eabi/9.2.1/../../../../arm-none-eabi/lib/thumb/v7-m/nofp/libg_nano.a(lib_a-impure.o)
                              /home/jerryneedell/Microchip/SoftConsole-v6.4/arm-none-eabi-gcc/bin/../lib/gcc/arm-none-eabi/9.2.1/../../../../arm-none-eabi/lib/thumb/v7-m/nofp/libg_nano.a(lib_a-exit.o) (_global_impure_ptr)
/home/jerryneedell/Microchip/SoftConsole-v6.4/arm-none-eabi-gcc/bin/../lib/gcc/arm-none-eabi/9.2.1/../../../../arm-none-eabi/lib/thumb/v7-m/nofp/libg_nano.a(lib_a-init.o)
                              /home/jerryneedell/Microchip/SoftConsole-v6.4/arm-none-eabi-gcc/bin/../lib/gcc/arm-none-eabi/9.2.1/../../../../arm-none-eabi/lib/thumb/v7-m/nofp/crt0.o (__libc_init_array)
/home/jerryneedell/Microchip/SoftConsole-v6.4/arm-none-eabi-gcc/bin/../lib/gcc/arm-none-eabi/9.2.1/../../../../arm-none-eabi/lib/thumb/v7-m/nofp/libg_nano.a(lib_a-memcmp.o)
                              ./lwip-1.4.1/netif/etharp.o (memcmp)
/home/jerryneedell/Microchip/SoftConsole-v6.4/arm-none-eabi-gcc/bin/../lib/gcc/arm-none-eabi/9.2.1/../../../../arm-none-eabi/lib/thumb/v7-m/nofp/libg_nano.a(lib_a-memcpy-stub.o)
                              ./lwip-1.4.1/netif/m2sxxx_ethernetif.o (memcpy)
/home/jerryneedell/Microchip/SoftConsole-v6.4/arm-none-eabi-gcc/bin/../lib/gcc/arm-none-eabi/9.2.1/../../../../arm-none-eabi/lib/thumb/v7-m/nofp/libg_nano.a(lib_a-memset.o)
                              /home/jerryneedell/Microchip/SoftConsole-v6.4/arm-none-eabi-gcc/bin/../lib/gcc/arm-none-eabi/9.2.1/../../../../arm-none-eabi/lib/thumb/v7-m/nofp/crt0.o (memset)
/home/jerryneedell/Microchip/SoftConsole-v6.4/arm-none-eabi-gcc/bin/../lib/gcc/arm-none-eabi/9.2.1/../../../../arm-none-eabi/lib/thumb/v7-m/nofp/libg_nano.a(lib_a-nano-vfprintf.o)
                              /home/jerryneedell/Microchip/SoftConsole-v6.4/arm-none-eabi-gcc/bin/../lib/gcc/arm-none-eabi/9.2.1/../../../../arm-none-eabi/lib/thumb/v7-m/nofp/libg_nano.a(lib_a-fprintf.o) (_vfprintf_r)
/home/jerryneedell/Microchip/SoftConsole-v6.4/arm-none-eabi-gcc/bin/../lib/gcc/arm-none-eabi/9.2.1/../../../../arm-none-eabi/lib/thumb/v7-m/nofp/libg_nano.a(lib_a-nano-vfprintf_i.o)
                              /home/jerryneedell/Microchip/SoftConsole-v6.4/arm-none-eabi-gcc/bin/../lib/gcc/arm-none-eabi/9.2.1/../../../../arm-none-eabi/lib/thumb/v7-m/nofp/libg_nano.a(lib_a-nano-vfprintf.o) (_printf_i)
/home/jerryneedell/Microchip/SoftConsole-v6.4/arm-none-eabi-gcc/bin/../lib/gcc/arm-none-eabi/9.2.1/../../../../arm-none-eabi/lib/thumb/v7-m/nofp/libg_nano.a(lib_a-snprintf.o)
                              ./WebServer/httpserver-netconn.o (snprintf)
/home/jerryneedell/Microchip/SoftConsole-v6.4/arm-none-eabi-gcc/bin/../lib/gcc/arm-none-eabi/9.2.1/../../../../arm-none-eabi/lib/thumb/v7-m/nofp/libg_nano.a(lib_a-sprintf.o)
                              ./FreeRTOS/tasks.o (sprintf)
/home/jerryneedell/Microchip/SoftConsole-v6.4/arm-none-eabi-gcc/bin/../lib/gcc/arm-none-eabi/9.2.1/../../../../arm-none-eabi/lib/thumb/v7-m/nofp/libg_nano.a(lib_a-strcat.o)
                              ./FreeRTOS/tasks.o (strcat)
/home/jerryneedell/Microchip/SoftConsole-v6.4/arm-none-eabi-gcc/bin/../lib/gcc/arm-none-eabi/9.2.1/../../../../arm-none-eabi/lib/thumb/v7-m/nofp/libg_nano.a(lib_a-strlen.o)
                              ./lwip-1.4.1/core/pbuf.o (strlen)
/home/jerryneedell/Microchip/SoftConsole-v6.4/arm-none-eabi-gcc/bin/../lib/gcc/arm-none-eabi/9.2.1/../../../../arm-none-eabi/lib/thumb/v7-m/nofp/libg_nano.a(lib_a-strncpy.o)
                              ./FreeRTOS/tasks.o (strncpy)
/home/jerryneedell/Microchip/SoftConsole-v6.4/arm-none-eabi-gcc/bin/../lib/gcc/arm-none-eabi/9.2.1/../../../../arm-none-eabi/lib/thumb/v7-m/nofp/libg_nano.a(lib_a-wbuf.o)
                              /home/jerryneedell/Microchip/SoftConsole-v6.4/arm-none-eabi-gcc/bin/../lib/gcc/arm-none-eabi/9.2.1/../../../../arm-none-eabi/lib/thumb/v7-m/nofp/libg_nano.a(lib_a-nano-vfprintf.o) (__swbuf_r)
/home/jerryneedell/Microchip/SoftConsole-v6.4/arm-none-eabi-gcc/bin/../lib/gcc/arm-none-eabi/9.2.1/../../../../arm-none-eabi/lib/thumb/v7-m/nofp/libg_nano.a(lib_a-wsetup.o)
                              /home/jerryneedell/Microchip/SoftConsole-v6.4/arm-none-eabi-gcc/bin/../lib/gcc/arm-none-eabi/9.2.1/../../../../arm-none-eabi/lib/thumb/v7-m/nofp/libg_nano.a(lib_a-nano-vfprintf.o) (__swsetup_r)
/home/jerryneedell/Microchip/SoftConsole-v6.4/arm-none-eabi-gcc/bin/../lib/gcc/arm-none-eabi/9.2.1/../../../../arm-none-eabi/lib/thumb/v7-m/nofp/libg_nano.a(lib_a-abort.o)
                              /home/jerryneedell/Microchip/SoftConsole-v6.4/arm-none-eabi-gcc/bin/../lib/gcc/arm-none-eabi/9.2.1/../../../../arm-none-eabi/lib/thumb/v7-m/nofp/libg_nano.a(lib_a-assert.o) (abort)
/home/jerryneedell/Microchip/SoftConsole-v6.4/arm-none-eabi-gcc/bin/../lib/gcc/arm-none-eabi/9.2.1/../../../../arm-none-eabi/lib/thumb/v7-m/nofp/libg_nano.a(lib_a-fflush.o)
                              /home/jerryneedell/Microchip/SoftConsole-v6.4/arm-none-eabi-gcc/bin/../lib/gcc/arm-none-eabi/9.2.1/../../../../arm-none-eabi/lib/thumb/v7-m/nofp/libg_nano.a(lib_a-wbuf.o) (_fflush_r)
/home/jerryneedell/Microchip/SoftConsole-v6.4/arm-none-eabi-gcc/bin/../lib/gcc/arm-none-eabi/9.2.1/../../../../arm-none-eabi/lib/thumb/v7-m/nofp/libg_nano.a(lib_a-findfp.o)
                              /home/jerryneedell/Microchip/SoftConsole-v6.4/arm-none-eabi-gcc/bin/../lib/gcc/arm-none-eabi/9.2.1/../../../../arm-none-eabi/lib/thumb/v7-m/nofp/libg_nano.a(lib_a-nano-vfprintf.o) (__sinit)
/home/jerryneedell/Microchip/SoftConsole-v6.4/arm-none-eabi-gcc/bin/../lib/gcc/arm-none-eabi/9.2.1/../../../../arm-none-eabi/lib/thumb/v7-m/nofp/libg_nano.a(lib_a-fvwrite.o)
                              /home/jerryneedell/Microchip/SoftConsole-v6.4/arm-none-eabi-gcc/bin/../lib/gcc/arm-none-eabi/9.2.1/../../../../arm-none-eabi/lib/thumb/v7-m/nofp/libg_nano.a(lib_a-nano-vfprintf.o) (__sfvwrite_r)
/home/jerryneedell/Microchip/SoftConsole-v6.4/arm-none-eabi-gcc/bin/../lib/gcc/arm-none-eabi/9.2.1/../../../../arm-none-eabi/lib/thumb/v7-m/nofp/libg_nano.a(lib_a-fwalk.o)
                              /home/jerryneedell/Microchip/SoftConsole-v6.4/arm-none-eabi-gcc/bin/../lib/gcc/arm-none-eabi/9.2.1/../../../../arm-none-eabi/lib/thumb/v7-m/nofp/libg_nano.a(lib_a-findfp.o) (_fwalk)
/home/jerryneedell/Microchip/SoftConsole-v6.4/arm-none-eabi-gcc/bin/../lib/gcc/arm-none-eabi/9.2.1/../../../../arm-none-eabi/lib/thumb/v7-m/nofp/libg_nano.a(lib_a-lock.o)
                              /home/jerryneedell/Microchip/SoftConsole-v6.4/arm-none-eabi-gcc/bin/../lib/gcc/arm-none-eabi/9.2.1/../../../../arm-none-eabi/lib/thumb/v7-m/nofp/libg_nano.a(lib_a-findfp.o) (__retarget_lock_init_recursive)
/home/jerryneedell/Microchip/SoftConsole-v6.4/arm-none-eabi-gcc/bin/../lib/gcc/arm-none-eabi/9.2.1/../../../../arm-none-eabi/lib/thumb/v7-m/nofp/libg_nano.a(lib_a-makebuf.o)
                              /home/jerryneedell/Microchip/SoftConsole-v6.4/arm-none-eabi-gcc/bin/../lib/gcc/arm-none-eabi/9.2.1/../../../../arm-none-eabi/lib/thumb/v7-m/nofp/libg_nano.a(lib_a-wsetup.o) (__smakebuf_r)
/home/jerryneedell/Microchip/SoftConsole-v6.4/arm-none-eabi-gcc/bin/../lib/gcc/arm-none-eabi/9.2.1/../../../../arm-none-eabi/lib/thumb/v7-m/nofp/libg_nano.a(lib_a-memchr-stub.o)
                              /home/jerryneedell/Microchip/SoftConsole-v6.4/arm-none-eabi-gcc/bin/../lib/gcc/arm-none-eabi/9.2.1/../../../../arm-none-eabi/lib/thumb/v7-m/nofp/libg_nano.a(lib_a-nano-vfprintf.o) (memchr)
/home/jerryneedell/Microchip/SoftConsole-v6.4/arm-none-eabi-gcc/bin/../lib/gcc/arm-none-eabi/9.2.1/../../../../arm-none-eabi/lib/thumb/v7-m/nofp/libg_nano.a(lib_a-memmove.o)
                              /home/jerryneedell/Microchip/SoftConsole-v6.4/arm-none-eabi-gcc/bin/../lib/gcc/arm-none-eabi/9.2.1/../../../../arm-none-eabi/lib/thumb/v7-m/nofp/libg_nano.a(lib_a-fvwrite.o) (memmove)
/home/jerryneedell/Microchip/SoftConsole-v6.4/arm-none-eabi-gcc/bin/../lib/gcc/arm-none-eabi/9.2.1/../../../../arm-none-eabi/lib/thumb/v7-m/nofp/libg_nano.a(lib_a-nano-freer.o)
                              /home/jerryneedell/Microchip/SoftConsole-v6.4/arm-none-eabi-gcc/bin/../lib/gcc/arm-none-eabi/9.2.1/../../../../arm-none-eabi/lib/thumb/v7-m/nofp/libg_nano.a(lib_a-wsetup.o) (_free_r)
/home/jerryneedell/Microchip/SoftConsole-v6.4/arm-none-eabi-gcc/bin/../lib/gcc/arm-none-eabi/9.2.1/../../../../arm-none-eabi/lib/thumb/v7-m/nofp/libg_nano.a(lib_a-nano-mallocr.o)
                              /home/jerryneedell/Microchip/SoftConsole-v6.4/arm-none-eabi-gcc/bin/../lib/gcc/arm-none-eabi/9.2.1/../../../../arm-none-eabi/lib/thumb/v7-m/nofp/libg_nano.a(lib_a-findfp.o) (_malloc_r)
/home/jerryneedell/Microchip/SoftConsole-v6.4/arm-none-eabi-gcc/bin/../lib/gcc/arm-none-eabi/9.2.1/../../../../arm-none-eabi/lib/thumb/v7-m/nofp/libg_nano.a(lib_a-nano-reallocr.o)
                              /home/jerryneedell/Microchip/SoftConsole-v6.4/arm-none-eabi-gcc/bin/../lib/gcc/arm-none-eabi/9.2.1/../../../../arm-none-eabi/lib/thumb/v7-m/nofp/libg_nano.a(lib_a-fvwrite.o) (_realloc_r)
/home/jerryneedell/Microchip/SoftConsole-v6.4/arm-none-eabi-gcc/bin/../lib/gcc/arm-none-eabi/9.2.1/../../../../arm-none-eabi/lib/thumb/v7-m/nofp/libg_nano.a(lib_a-nano-svfprintf.o)
                              /home/jerryneedell/Microchip/SoftConsole-v6.4/arm-none-eabi-gcc/bin/../lib/gcc/arm-none-eabi/9.2.1/../../../../arm-none-eabi/lib/thumb/v7-m/nofp/libg_nano.a(lib_a-snprintf.o) (_svfprintf_r)
/home/jerryneedell/Microchip/SoftConsole-v6.4/arm-none-eabi-gcc/bin/../lib/gcc/arm-none-eabi/9.2.1/../../../../arm-none-eabi/lib/thumb/v7-m/nofp/libg_nano.a(lib_a-sbrkr.o)
                              /home/jerryneedell/Microchip/SoftConsole-v6.4/arm-none-eabi-gcc/bin/../lib/gcc/arm-none-eabi/9.2.1/../../../../arm-none-eabi/lib/thumb/v7-m/nofp/libg_nano.a(lib_a-nano-mallocr.o) (_sbrk_r)
/home/jerryneedell/Microchip/SoftConsole-v6.4/arm-none-eabi-gcc/bin/../lib/gcc/arm-none-eabi/9.2.1/../../../../arm-none-eabi/lib/thumb/v7-m/nofp/libg_nano.a(lib_a-signal.o)
                              /home/jerryneedell/Microchip/SoftConsole-v6.4/arm-none-eabi-gcc/bin/../lib/gcc/arm-none-eabi/9.2.1/../../../../arm-none-eabi/lib/thumb/v7-m/nofp/libg_nano.a(lib_a-abort.o) (raise)
/home/jerryneedell/Microchip/SoftConsole-v6.4/arm-none-eabi-gcc/bin/../lib/gcc/arm-none-eabi/9.2.1/../../../../arm-none-eabi/lib/thumb/v7-m/nofp/libg_nano.a(lib_a-signalr.o)
                              /home/jerryneedell/Microchip/SoftConsole-v6.4/arm-none-eabi-gcc/bin/../lib/gcc/arm-none-eabi/9.2.1/../../../../arm-none-eabi/lib/thumb/v7-m/nofp/libg_nano.a(lib_a-signal.o) (_kill_r)
/home/jerryneedell/Microchip/SoftConsole-v6.4/arm-none-eabi-gcc/bin/../lib/gcc/arm-none-eabi/9.2.1/../../../../arm-none-eabi/lib/thumb/v7-m/nofp/libg_nano.a(lib_a-stdio.o)
                              /home/jerryneedell/Microchip/SoftConsole-v6.4/arm-none-eabi-gcc/bin/../lib/gcc/arm-none-eabi/9.2.1/../../../../arm-none-eabi/lib/thumb/v7-m/nofp/libg_nano.a(lib_a-findfp.o) (__sread)
/home/jerryneedell/Microchip/SoftConsole-v6.4/arm-none-eabi-gcc/bin/../lib/gcc/arm-none-eabi/9.2.1/../../../../arm-none-eabi/lib/thumb/v7-m/nofp/libg_nano.a(lib_a-closer.o)
                              /home/jerryneedell/Microchip/SoftConsole-v6.4/arm-none-eabi-gcc/bin/../lib/gcc/arm-none-eabi/9.2.1/../../../../arm-none-eabi/lib/thumb/v7-m/nofp/libg_nano.a(lib_a-stdio.o) (_close_r)
/home/jerryneedell/Microchip/SoftConsole-v6.4/arm-none-eabi-gcc/bin/../lib/gcc/arm-none-eabi/9.2.1/../../../../arm-none-eabi/lib/thumb/v7-m/nofp/libg_nano.a(lib_a-fstatr.o)
                              /home/jerryneedell/Microchip/SoftConsole-v6.4/arm-none-eabi-gcc/bin/../lib/gcc/arm-none-eabi/9.2.1/../../../../arm-none-eabi/lib/thumb/v7-m/nofp/libg_nano.a(lib_a-makebuf.o) (_fstat_r)
/home/jerryneedell/Microchip/SoftConsole-v6.4/arm-none-eabi-gcc/bin/../lib/gcc/arm-none-eabi/9.2.1/../../../../arm-none-eabi/lib/thumb/v7-m/nofp/libg_nano.a(lib_a-isattyr.o)
                              /home/jerryneedell/Microchip/SoftConsole-v6.4/arm-none-eabi-gcc/bin/../lib/gcc/arm-none-eabi/9.2.1/../../../../arm-none-eabi/lib/thumb/v7-m/nofp/libg_nano.a(lib_a-makebuf.o) (_isatty_r)
/home/jerryneedell/Microchip/SoftConsole-v6.4/arm-none-eabi-gcc/bin/../lib/gcc/arm-none-eabi/9.2.1/../../../../arm-none-eabi/lib/thumb/v7-m/nofp/libg_nano.a(lib_a-lseekr.o)
                              /home/jerryneedell/Microchip/SoftConsole-v6.4/arm-none-eabi-gcc/bin/../lib/gcc/arm-none-eabi/9.2.1/../../../../arm-none-eabi/lib/thumb/v7-m/nofp/libg_nano.a(lib_a-stdio.o) (_lseek_r)
/home/jerryneedell/Microchip/SoftConsole-v6.4/arm-none-eabi-gcc/bin/../lib/gcc/arm-none-eabi/9.2.1/../../../../arm-none-eabi/lib/thumb/v7-m/nofp/libg_nano.a(lib_a-mlock.o)
                              /home/jerryneedell/Microchip/SoftConsole-v6.4/arm-none-eabi-gcc/bin/../lib/gcc/arm-none-eabi/9.2.1/../../../../arm-none-eabi/lib/thumb/v7-m/nofp/libg_nano.a(lib_a-nano-freer.o) (__malloc_lock)
/home/jerryneedell/Microchip/SoftConsole-v6.4/arm-none-eabi-gcc/bin/../lib/gcc/arm-none-eabi/9.2.1/../../../../arm-none-eabi/lib/thumb/v7-m/nofp/libg_nano.a(lib_a-nano-msizer.o)
                              /home/jerryneedell/Microchip/SoftConsole-v6.4/arm-none-eabi-gcc/bin/../lib/gcc/arm-none-eabi/9.2.1/../../../../arm-none-eabi/lib/thumb/v7-m/nofp/libg_nano.a(lib_a-nano-reallocr.o) (_malloc_usable_size_r)
/home/jerryneedell/Microchip/SoftConsole-v6.4/arm-none-eabi-gcc/bin/../lib/gcc/arm-none-eabi/9.2.1/../../../../arm-none-eabi/lib/thumb/v7-m/nofp/libg_nano.a(lib_a-readr.o)
                              /home/jerryneedell/Microchip/SoftConsole-v6.4/arm-none-eabi-gcc/bin/../lib/gcc/arm-none-eabi/9.2.1/../../../../arm-none-eabi/lib/thumb/v7-m/nofp/libg_nano.a(lib_a-stdio.o) (_read_r)
/home/jerryneedell/Microchip/SoftConsole-v6.4/arm-none-eabi-gcc/bin/../lib/gcc/arm-none-eabi/9.2.1/../../../../arm-none-eabi/lib/thumb/v7-m/nofp/libg_nano.a(lib_a-reent.o)
                              /home/jerryneedell/Microchip/SoftConsole-v6.4/arm-none-eabi-gcc/bin/../lib/gcc/arm-none-eabi/9.2.1/../../../../arm-none-eabi/lib/thumb/v7-m/nofp/libg_nano.a(lib_a-sbrkr.o) (errno)

Allocating common symbols
Common symbol       size              file

current_iphdr_src   0x4               ./lwip-1.4.1/core/ipv4/ip.o
netif_list          0x4               ./lwip-1.4.1/core/netif.o
__lock___atexit_recursive_mutex
                    0x1               /home/jerryneedell/Microchip/SoftConsole-v6.4/arm-none-eabi-gcc/bin/../lib/gcc/arm-none-eabi/9.2.1/../../../../arm-none-eabi/lib/thumb/v7-m/nofp/libg_nano.a(lib_a-lock.o)
__lock___arc4random_mutex
                    0x1               /home/jerryneedell/Microchip/SoftConsole-v6.4/arm-none-eabi-gcc/bin/../lib/gcc/arm-none-eabi/9.2.1/../../../../arm-none-eabi/lib/thumb/v7-m/nofp/libg_nano.a(lib_a-lock.o)
tcp_active_pcbs_changed
                    0x1               ./lwip-1.4.1/core/tcp.o
tcp_active_pcbs     0x4               ./lwip-1.4.1/core/tcp.o
udp_pcbs            0x4               ./lwip-1.4.1/core/udp.o
errno               0x4               /home/jerryneedell/Microchip/SoftConsole-v6.4/arm-none-eabi-gcc/bin/../lib/gcc/arm-none-eabi/9.2.1/../../../../arm-none-eabi/lib/thumb/v7-m/nofp/libg_nano.a(lib_a-reent.o)
current_netif       0x4               ./lwip-1.4.1/core/ipv4/ip.o
tcp_ticks           0x4               ./lwip-1.4.1/core/tcp.o
tcp_listen_pcbs     0x4               ./lwip-1.4.1/core/tcp.o
g_mss_spi1          0x84              ./drivers/mss_spi/mss_spi.o
current_iphdr_dest  0x4               ./lwip-1.4.1/core/ipv4/ip.o
g_ethernet_status   0x2               ./WebServer/httpserver-netconn.o
__lock___env_recursive_mutex
                    0x1               /home/jerryneedell/Microchip/SoftConsole-v6.4/arm-none-eabi-gcc/bin/../lib/gcc/arm-none-eabi/9.2.1/../../../../arm-none-eabi/lib/thumb/v7-m/nofp/libg_nano.a(lib_a-lock.o)
__lock___sinit_recursive_mutex
                    0x1               /home/jerryneedell/Microchip/SoftConsole-v6.4/arm-none-eabi-gcc/bin/../lib/gcc/arm-none-eabi/9.2.1/../../../../arm-none-eabi/lib/thumb/v7-m/nofp/libg_nano.a(lib_a-lock.o)
tcp_tmp_pcb         0x4               ./lwip-1.4.1/core/tcp.o
__lock___malloc_recursive_mutex
                    0x1               /home/jerryneedell/Microchip/SoftConsole-v6.4/arm-none-eabi-gcc/bin/../lib/gcc/arm-none-eabi/9.2.1/../../../../arm-none-eabi/lib/thumb/v7-m/nofp/libg_nano.a(lib_a-lock.o)
tcp_input_pcb       0x4               ./lwip-1.4.1/core/tcp_in.o
current_header      0x4               ./lwip-1.4.1/core/ipv4/ip.o
dhcp_rx_options_given
                    0xa               ./lwip-1.4.1/core/dhcp.o
g_mss_uart1         0x40              ./drivers/mss_uart/mss_uart.o
tcp_bound_pcbs      0x4               ./lwip-1.4.1/core/tcp.o
g_mss_uart0         0x40              ./drivers/mss_uart/mss_uart.o
pbuf_free_ooseq_pending
                    0x1               ./lwip-1.4.1/core/pbuf.o
g_mac_config        0x2c              ./lwip-1.4.1/netif/m2sxxx_ethernetif.o
tcp_tw_pcbs         0x4               ./lwip-1.4.1/core/tcp.o
__lock___at_quick_exit_mutex
                    0x1               /home/jerryneedell/Microchip/SoftConsole-v6.4/arm-none-eabi-gcc/bin/../lib/gcc/arm-none-eabi/9.2.1/../../../../arm-none-eabi/lib/thumb/v7-m/nofp/libg_nano.a(lib_a-lock.o)
netif_default       0x4               ./lwip-1.4.1/core/netif.o
g_mss_spi0          0x84              ./drivers/mss_spi/mss_spi.o
dhcp_rx_options_val
                    0x28              ./lwip-1.4.1/core/dhcp.o
__lock___dd_hash_mutex
                    0x1               /home/jerryneedell/Microchip/SoftConsole-v6.4/arm-none-eabi-gcc/bin/../lib/gcc/arm-none-eabi/9.2.1/../../../../arm-none-eabi/lib/thumb/v7-m/nofp/libg_nano.a(lib_a-lock.o)
__lock___tz_mutex   0x1               /home/jerryneedell/Microchip/SoftConsole-v6.4/arm-none-eabi-gcc/bin/../lib/gcc/arm-none-eabi/9.2.1/../../../../arm-none-eabi/lib/thumb/v7-m/nofp/libg_nano.a(lib_a-lock.o)
ram_heap            0x1014            ./lwip-1.4.1/core/mem.o
__lock___sfp_recursive_mutex
                    0x1               /home/jerryneedell/Microchip/SoftConsole-v6.4/arm-none-eabi-gcc/bin/../lib/gcc/arm-none-eabi/9.2.1/../../../../arm-none-eabi/lib/thumb/v7-m/nofp/libg_nano.a(lib_a-lock.o)

Discarded input sections

 .text          0x0000000000000000        0x0 /home/jerryneedell/Microchip/SoftConsole-v6.4/arm-none-eabi-gcc/bin/../lib/gcc/arm-none-eabi/9.2.1/thumb/v7-m/nofp/crti.o
 .data          0x0000000000000000        0x0 /home/jerryneedell/Microchip/SoftConsole-v6.4/arm-none-eabi-gcc/bin/../lib/gcc/arm-none-eabi/9.2.1/thumb/v7-m/nofp/crti.o
 .bss           0x0000000000000000        0x0 /home/jerryneedell/Microchip/SoftConsole-v6.4/arm-none-eabi-gcc/bin/../lib/gcc/arm-none-eabi/9.2.1/thumb/v7-m/nofp/crti.o
 .text          0x0000000000000000        0x0 /home/jerryneedell/Microchip/SoftConsole-v6.4/arm-none-eabi-gcc/bin/../lib/gcc/arm-none-eabi/9.2.1/thumb/v7-m/nofp/crtbegin.o
 .data          0x0000000000000000        0x0 /home/jerryneedell/Microchip/SoftConsole-v6.4/arm-none-eabi-gcc/bin/../lib/gcc/arm-none-eabi/9.2.1/thumb/v7-m/nofp/crtbegin.o
 .bss           0x0000000000000000        0x0 /home/jerryneedell/Microchip/SoftConsole-v6.4/arm-none-eabi-gcc/bin/../lib/gcc/arm-none-eabi/9.2.1/thumb/v7-m/nofp/crtbegin.o
 .data.__dso_handle
                0x0000000000000000        0x4 /home/jerryneedell/Microchip/SoftConsole-v6.4/arm-none-eabi-gcc/bin/../lib/gcc/arm-none-eabi/9.2.1/thumb/v7-m/nofp/crtbegin.o
 .text          0x0000000000000000       0x74 /home/jerryneedell/Microchip/SoftConsole-v6.4/arm-none-eabi-gcc/bin/../lib/gcc/arm-none-eabi/9.2.1/../../../../arm-none-eabi/lib/thumb/v7-m/nofp/crt0.o
 .data          0x0000000000000000        0x0 /home/jerryneedell/Microchip/SoftConsole-v6.4/arm-none-eabi-gcc/bin/../lib/gcc/arm-none-eabi/9.2.1/../../../../arm-none-eabi/lib/thumb/v7-m/nofp/crt0.o
 .bss           0x0000000000000000        0x0 /home/jerryneedell/Microchip/SoftConsole-v6.4/arm-none-eabi-gcc/bin/../lib/gcc/arm-none-eabi/9.2.1/../../../../arm-none-eabi/lib/thumb/v7-m/nofp/crt0.o
 .ARM.extab     0x0000000000000000        0x0 /home/jerryneedell/Microchip/SoftConsole-v6.4/arm-none-eabi-gcc/bin/../lib/gcc/arm-none-eabi/9.2.1/../../../../arm-none-eabi/lib/thumb/v7-m/nofp/crt0.o
 .ARM.exidx     0x0000000000000000        0x8 /home/jerryneedell/Microchip/SoftConsole-v6.4/arm-none-eabi-gcc/bin/../lib/gcc/arm-none-eabi/9.2.1/../../../../arm-none-eabi/lib/thumb/v7-m/nofp/crt0.o
 .text          0x0000000000000000        0x0 ./lwip-1.4.1/port/FreeRTOS/M2SXXX/sys_arch.o
 .data          0x0000000000000000        0x0 ./lwip-1.4.1/port/FreeRTOS/M2SXXX/sys_arch.o
 .bss           0x0000000000000000        0x0 ./lwip-1.4.1/port/FreeRTOS/M2SXXX/sys_arch.o
 .text          0x0000000000000000        0x0 ./lwip-1.4.1/netif/ppp/auth.o
 .data          0x0000000000000000        0x0 ./lwip-1.4.1/netif/ppp/auth.o
 .bss           0x0000000000000000        0x0 ./lwip-1.4.1/netif/ppp/auth.o
 .debug_info    0x0000000000000000      0x983 ./lwip-1.4.1/netif/ppp/auth.o
 .debug_abbrev  0x0000000000000000      0x1b8 ./lwip-1.4.1/netif/ppp/auth.o
 .debug_aranges
                0x0000000000000000       0x18 ./lwip-1.4.1/netif/ppp/auth.o
 .debug_line    0x0000000000000000      0x2c1 ./lwip-1.4.1/netif/ppp/auth.o
 .debug_str     0x0000000000000000      0x613 ./lwip-1.4.1/netif/ppp/auth.o
 .comment       0x0000000000000000       0x67 ./lwip-1.4.1/netif/ppp/auth.o
 .text          0x0000000000000000        0x0 ./lwip-1.4.1/netif/ppp/chap.o
 .data          0x0000000000000000        0x0 ./lwip-1.4.1/netif/ppp/chap.o
 .bss           0x0000000000000000        0x0 ./lwip-1.4.1/netif/ppp/chap.o
 .debug_info    0x0000000000000000      0x983 ./lwip-1.4.1/netif/ppp/chap.o
 .debug_abbrev  0x0000000000000000      0x1b8 ./lwip-1.4.1/netif/ppp/chap.o
 .debug_aranges
                0x0000000000000000       0x18 ./lwip-1.4.1/netif/ppp/chap.o
 .debug_line    0x0000000000000000      0x2c1 ./lwip-1.4.1/netif/ppp/chap.o
 .debug_str     0x0000000000000000      0x613 ./lwip-1.4.1/netif/ppp/chap.o
 .comment       0x0000000000000000       0x67 ./lwip-1.4.1/netif/ppp/chap.o
 .text          0x0000000000000000        0x0 ./lwip-1.4.1/netif/ppp/chpms.o
 .data          0x0000000000000000        0x0 ./lwip-1.4.1/netif/ppp/chpms.o
 .bss           0x0000000000000000        0x0 ./lwip-1.4.1/netif/ppp/chpms.o
 .debug_info    0x0000000000000000      0x983 ./lwip-1.4.1/netif/ppp/chpms.o
 .debug_abbrev  0x0000000000000000      0x1b8 ./lwip-1.4.1/netif/ppp/chpms.o
 .debug_aranges
                0x0000000000000000       0x18 ./lwip-1.4.1/netif/ppp/chpms.o
 .debug_line    0x0000000000000000      0x2c1 ./lwip-1.4.1/netif/ppp/chpms.o
 .debug_str     0x0000000000000000      0x614 ./lwip-1.4.1/netif/ppp/chpms.o
 .comment       0x0000000000000000       0x67 ./lwip-1.4.1/netif/ppp/chpms.o
 .text          0x0000000000000000        0x0 ./lwip-1.4.1/netif/ppp/fsm.o
 .data          0x0000000000000000        0x0 ./lwip-1.4.1/netif/ppp/fsm.o
 .bss           0x0000000000000000        0x0 ./lwip-1.4.1/netif/ppp/fsm.o
 .debug_info    0x0000000000000000      0x983 ./lwip-1.4.1/netif/ppp/fsm.o
 .debug_abbrev  0x0000000000000000      0x1b8 ./lwip-1.4.1/netif/ppp/fsm.o
 .debug_aranges
                0x0000000000000000       0x18 ./lwip-1.4.1/netif/ppp/fsm.o
 .debug_line    0x0000000000000000      0x2c1 ./lwip-1.4.1/netif/ppp/fsm.o
 .debug_str     0x0000000000000000      0x612 ./lwip-1.4.1/netif/ppp/fsm.o
 .comment       0x0000000000000000       0x67 ./lwip-1.4.1/netif/ppp/fsm.o
 .text          0x0000000000000000        0x0 ./lwip-1.4.1/netif/ppp/ipcp.o
 .data          0x0000000000000000        0x0 ./lwip-1.4.1/netif/ppp/ipcp.o
 .bss           0x0000000000000000        0x0 ./lwip-1.4.1/netif/ppp/ipcp.o
 .debug_info    0x0000000000000000      0x983 ./lwip-1.4.1/netif/ppp/ipcp.o
 .debug_abbrev  0x0000000000000000      0x1b8 ./lwip-1.4.1/netif/ppp/ipcp.o
 .debug_aranges
                0x0000000000000000       0x18 ./lwip-1.4.1/netif/ppp/ipcp.o
 .debug_line    0x0000000000000000      0x2c1 ./lwip-1.4.1/netif/ppp/ipcp.o
 .debug_str     0x0000000000000000      0x613 ./lwip-1.4.1/netif/ppp/ipcp.o
 .comment       0x0000000000000000       0x67 ./lwip-1.4.1/netif/ppp/ipcp.o
 .text          0x0000000000000000        0x0 ./lwip-1.4.1/netif/ppp/lcp.o
 .data          0x0000000000000000        0x0 ./lwip-1.4.1/netif/ppp/lcp.o
 .bss           0x0000000000000000        0x0 ./lwip-1.4.1/netif/ppp/lcp.o
 .debug_info    0x0000000000000000      0x983 ./lwip-1.4.1/netif/ppp/lcp.o
 .debug_abbrev  0x0000000000000000      0x1b8 ./lwip-1.4.1/netif/ppp/lcp.o
 .debug_aranges
                0x0000000000000000       0x18 ./lwip-1.4.1/netif/ppp/lcp.o
 .debug_line    0x0000000000000000      0x2c1 ./lwip-1.4.1/netif/ppp/lcp.o
 .debug_str     0x0000000000000000      0x612 ./lwip-1.4.1/netif/ppp/lcp.o
 .comment       0x0000000000000000       0x67 ./lwip-1.4.1/netif/ppp/lcp.o
 .text          0x0000000000000000        0x0 ./lwip-1.4.1/netif/ppp/magic.o
 .data          0x0000000000000000        0x0 ./lwip-1.4.1/netif/ppp/magic.o
 .bss           0x0000000000000000        0x0 ./lwip-1.4.1/netif/ppp/magic.o
 .debug_info    0x0000000000000000      0x983 ./lwip-1.4.1/netif/ppp/magic.o
 .debug_abbrev  0x0000000000000000      0x1b8 ./lwip-1.4.1/netif/ppp/magic.o
 .debug_aranges
                0x0000000000000000       0x18 ./lwip-1.4.1/netif/ppp/magic.o
 .debug_line    0x0000000000000000      0x2c1 ./lwip-1.4.1/netif/ppp/magic.o
 .debug_str     0x0000000000000000      0x614 ./lwip-1.4.1/netif/ppp/magic.o
 .comment       0x0000000000000000       0x67 ./lwip-1.4.1/netif/ppp/magic.o
 .text          0x0000000000000000        0x0 ./lwip-1.4.1/netif/ppp/md5.o
 .data          0x0000000000000000        0x0 ./lwip-1.4.1/netif/ppp/md5.o
 .bss           0x0000000000000000        0x0 ./lwip-1.4.1/netif/ppp/md5.o
 .debug_info    0x0000000000000000      0x983 ./lwip-1.4.1/netif/ppp/md5.o
 .debug_abbrev  0x0000000000000000      0x1b8 ./lwip-1.4.1/netif/ppp/md5.o
 .debug_aranges
                0x0000000000000000       0x18 ./lwip-1.4.1/netif/ppp/md5.o
 .debug_line    0x0000000000000000      0x2c1 ./lwip-1.4.1/netif/ppp/md5.o
 .debug_str     0x0000000000000000      0x612 ./lwip-1.4.1/netif/ppp/md5.o
 .comment       0x0000000000000000       0x67 ./lwip-1.4.1/netif/ppp/md5.o
 .text          0x0000000000000000        0x0 ./lwip-1.4.1/netif/ppp/pap.o
 .data          0x0000000000000000        0x0 ./lwip-1.4.1/netif/ppp/pap.o
 .bss           0x0000000000000000        0x0 ./lwip-1.4.1/netif/ppp/pap.o
 .debug_info    0x0000000000000000      0x983 ./lwip-1.4.1/netif/ppp/pap.o
 .debug_abbrev  0x0000000000000000      0x1b8 ./lwip-1.4.1/netif/ppp/pap.o
 .debug_aranges
                0x0000000000000000       0x18 ./lwip-1.4.1/netif/ppp/pap.o
 .debug_line    0x0000000000000000      0x2c1 ./lwip-1.4.1/netif/ppp/pap.o
 .debug_str     0x0000000000000000      0x612 ./lwip-1.4.1/netif/ppp/pap.o
 .comment       0x0000000000000000       0x67 ./lwip-1.4.1/netif/ppp/pap.o
 .text          0x0000000000000000        0x0 ./lwip-1.4.1/netif/ppp/ppp.o
 .data          0x0000000000000000        0x0 ./lwip-1.4.1/netif/ppp/ppp.o
 .bss           0x0000000000000000        0x0 ./lwip-1.4.1/netif/ppp/ppp.o
 .debug_info    0x0000000000000000      0x983 ./lwip-1.4.1/netif/ppp/ppp.o
 .debug_abbrev  0x0000000000000000      0x1b8 ./lwip-1.4.1/netif/ppp/ppp.o
 .debug_aranges
                0x0000000000000000       0x18 ./lwip-1.4.1/netif/ppp/ppp.o
 .debug_line    0x0000000000000000      0x2c1 ./lwip-1.4.1/netif/ppp/ppp.o
 .debug_str     0x0000000000000000      0x612 ./lwip-1.4.1/netif/ppp/ppp.o
 .comment       0x0000000000000000       0x67 ./lwip-1.4.1/netif/ppp/ppp.o
 .text          0x0000000000000000        0x0 ./lwip-1.4.1/netif/ppp/ppp_oe.o
 .data          0x0000000000000000        0x0 ./lwip-1.4.1/netif/ppp/ppp_oe.o
 .bss           0x0000000000000000        0x0 ./lwip-1.4.1/netif/ppp/ppp_oe.o
 .debug_info    0x0000000000000000      0x983 ./lwip-1.4.1/netif/ppp/ppp_oe.o
 .debug_abbrev  0x0000000000000000      0x1b8 ./lwip-1.4.1/netif/ppp/ppp_oe.o
 .debug_aranges
                0x0000000000000000       0x18 ./lwip-1.4.1/netif/ppp/ppp_oe.o
 .debug_line    0x0000000000000000      0x2c1 ./lwip-1.4.1/netif/ppp/ppp_oe.o
 .debug_str     0x0000000000000000      0x615 ./lwip-1.4.1/netif/ppp/ppp_oe.o
 .comment       0x0000000000000000       0x67 ./lwip-1.4.1/netif/ppp/ppp_oe.o
 .text          0x0000000000000000        0x0 ./lwip-1.4.1/netif/ppp/randm.o
 .data          0x0000000000000000        0x0 ./lwip-1.4.1/netif/ppp/randm.o
 .bss           0x0000000000000000        0x0 ./lwip-1.4.1/netif/ppp/randm.o
 .debug_info    0x0000000000000000      0x983 ./lwip-1.4.1/netif/ppp/randm.o
 .debug_abbrev  0x0000000000000000      0x1b8 ./lwip-1.4.1/netif/ppp/randm.o
 .debug_aranges
                0x0000000000000000       0x18 ./lwip-1.4.1/netif/ppp/randm.o
 .debug_line    0x0000000000000000      0x2c1 ./lwip-1.4.1/netif/ppp/randm.o
 .debug_str     0x0000000000000000      0x614 ./lwip-1.4.1/netif/ppp/randm.o
 .comment       0x0000000000000000       0x67 ./lwip-1.4.1/netif/ppp/randm.o
 .text          0x0000000000000000        0x0 ./lwip-1.4.1/netif/ppp/vj.o
 .data          0x0000000000000000        0x0 ./lwip-1.4.1/netif/ppp/vj.o
 .bss           0x0000000000000000        0x0 ./lwip-1.4.1/netif/ppp/vj.o
 .debug_info    0x0000000000000000      0x983 ./lwip-1.4.1/netif/ppp/vj.o
 .debug_abbrev  0x0000000000000000      0x1b8 ./lwip-1.4.1/netif/ppp/vj.o
 .debug_aranges
                0x0000000000000000       0x18 ./lwip-1.4.1/netif/ppp/vj.o
 .debug_line    0x0000000000000000      0x2c1 ./lwip-1.4.1/netif/ppp/vj.o
 .debug_str     0x0000000000000000      0x611 ./lwip-1.4.1/netif/ppp/vj.o
 .comment       0x0000000000000000       0x67 ./lwip-1.4.1/netif/ppp/vj.o
 .text          0x0000000000000000        0x0 ./lwip-1.4.1/netif/etharp.o
 .data          0x0000000000000000        0x0 ./lwip-1.4.1/netif/etharp.o
 .bss           0x0000000000000000        0x0 ./lwip-1.4.1/netif/etharp.o
 .rodata.etharp_find_addr.str1.4
                0x0000000000000000       0x22 ./lwip-1.4.1/netif/etharp.o
 .text.etharp_find_addr
                0x0000000000000000       0x94 ./lwip-1.4.1/netif/etharp.o
 .rodata.ethzero
                0x0000000000000000        0x6 ./lwip-1.4.1/netif/etharp.o
 .text          0x0000000000000000        0x0 ./lwip-1.4.1/netif/ethernetif.o
 .data          0x0000000000000000        0x0 ./lwip-1.4.1/netif/ethernetif.o
 .bss           0x0000000000000000        0x0 ./lwip-1.4.1/netif/ethernetif.o
 .debug_info    0x0000000000000000      0x983 ./lwip-1.4.1/netif/ethernetif.o
 .debug_abbrev  0x0000000000000000      0x1b8 ./lwip-1.4.1/netif/ethernetif.o
 .debug_aranges
                0x0000000000000000       0x18 ./lwip-1.4.1/netif/ethernetif.o
 .debug_line    0x0000000000000000      0x2c1 ./lwip-1.4.1/netif/ethernetif.o
 .debug_str     0x0000000000000000      0x615 ./lwip-1.4.1/netif/ethernetif.o
 .comment       0x0000000000000000       0x67 ./lwip-1.4.1/netif/ethernetif.o
 .text          0x0000000000000000        0x0 ./lwip-1.4.1/netif/m2sxxx_ethernetif.o
 .data          0x0000000000000000        0x0 ./lwip-1.4.1/netif/m2sxxx_ethernetif.o
 .bss           0x0000000000000000        0x0 ./lwip-1.4.1/netif/m2sxxx_ethernetif.o
 .text.clear_mac_buf
                0x0000000000000000       0x28 ./lwip-1.4.1/netif/m2sxxx_ethernetif.o
 .text          0x0000000000000000        0x0 ./lwip-1.4.1/netif/slipif.o
 .data          0x0000000000000000        0x0 ./lwip-1.4.1/netif/slipif.o
 .bss           0x0000000000000000        0x0 ./lwip-1.4.1/netif/slipif.o
 .debug_info    0x0000000000000000      0xc40 ./lwip-1.4.1/netif/slipif.o
 .debug_abbrev  0x0000000000000000      0x1b8 ./lwip-1.4.1/netif/slipif.o
 .debug_aranges
                0x0000000000000000       0x18 ./lwip-1.4.1/netif/slipif.o
 .debug_line    0x0000000000000000      0x3f0 ./lwip-1.4.1/netif/slipif.o
 .debug_str     0x0000000000000000      0x744 ./lwip-1.4.1/netif/slipif.o
 .comment       0x0000000000000000       0x67 ./lwip-1.4.1/netif/slipif.o
 .text          0x0000000000000000        0x0 ./lwip-1.4.1/core/snmp/asn1_dec.o
 .data          0x0000000000000000        0x0 ./lwip-1.4.1/core/snmp/asn1_dec.o
 .bss           0x0000000000000000        0x0 ./lwip-1.4.1/core/snmp/asn1_dec.o
 .debug_info    0x0000000000000000      0x983 ./lwip-1.4.1/core/snmp/asn1_dec.o
 .debug_abbrev  0x0000000000000000      0x1b8 ./lwip-1.4.1/core/snmp/asn1_dec.o
 .debug_aranges
                0x0000000000000000       0x18 ./lwip-1.4.1/core/snmp/asn1_dec.o
 .debug_line    0x0000000000000000      0x2c1 ./lwip-1.4.1/core/snmp/asn1_dec.o
 .debug_str     0x0000000000000000      0x617 ./lwip-1.4.1/core/snmp/asn1_dec.o
 .comment       0x0000000000000000       0x67 ./lwip-1.4.1/core/snmp/asn1_dec.o
 .text          0x0000000000000000        0x0 ./lwip-1.4.1/core/snmp/asn1_enc.o
 .data          0x0000000000000000        0x0 ./lwip-1.4.1/core/snmp/asn1_enc.o
 .bss           0x0000000000000000        0x0 ./lwip-1.4.1/core/snmp/asn1_enc.o
 .debug_info    0x0000000000000000      0x983 ./lwip-1.4.1/core/snmp/asn1_enc.o
 .debug_abbrev  0x0000000000000000      0x1b8 ./lwip-1.4.1/core/snmp/asn1_enc.o
 .debug_aranges
                0x0000000000000000       0x18 ./lwip-1.4.1/core/snmp/asn1_enc.o
 .debug_line    0x0000000000000000      0x2c1 ./lwip-1.4.1/core/snmp/asn1_enc.o
 .debug_str     0x0000000000000000      0x617 ./lwip-1.4.1/core/snmp/asn1_enc.o
 .comment       0x0000000000000000       0x67 ./lwip-1.4.1/core/snmp/asn1_enc.o
 .text          0x0000000000000000        0x0 ./lwip-1.4.1/core/snmp/mib2.o
 .data          0x0000000000000000        0x0 ./lwip-1.4.1/core/snmp/mib2.o
 .bss           0x0000000000000000        0x0 ./lwip-1.4.1/core/snmp/mib2.o
 .debug_info    0x0000000000000000      0x983 ./lwip-1.4.1/core/snmp/mib2.o
 .debug_abbrev  0x0000000000000000      0x1b8 ./lwip-1.4.1/core/snmp/mib2.o
 .debug_aranges
                0x0000000000000000       0x18 ./lwip-1.4.1/core/snmp/mib2.o
 .debug_line    0x0000000000000000      0x2c1 ./lwip-1.4.1/core/snmp/mib2.o
 .debug_str     0x0000000000000000      0x613 ./lwip-1.4.1/core/snmp/mib2.o
 .comment       0x0000000000000000       0x67 ./lwip-1.4.1/core/snmp/mib2.o
 .text          0x0000000000000000        0x0 ./lwip-1.4.1/core/snmp/mib_structs.o
 .data          0x0000000000000000        0x0 ./lwip-1.4.1/core/snmp/mib_structs.o
 .bss           0x0000000000000000        0x0 ./lwip-1.4.1/core/snmp/mib_structs.o
 .debug_info    0x0000000000000000      0x983 ./lwip-1.4.1/core/snmp/mib_structs.o
 .debug_abbrev  0x0000000000000000      0x1b8 ./lwip-1.4.1/core/snmp/mib_structs.o
 .debug_aranges
                0x0000000000000000       0x18 ./lwip-1.4.1/core/snmp/mib_structs.o
 .debug_line    0x0000000000000000      0x2c1 ./lwip-1.4.1/core/snmp/mib_structs.o
 .debug_str     0x0000000000000000      0x61a ./lwip-1.4.1/core/snmp/mib_structs.o
 .comment       0x0000000000000000       0x67 ./lwip-1.4.1/core/snmp/mib_structs.o
 .text          0x0000000000000000        0x0 ./lwip-1.4.1/core/snmp/msg_in.o
 .data          0x0000000000000000        0x0 ./lwip-1.4.1/core/snmp/msg_in.o
 .bss           0x0000000000000000        0x0 ./lwip-1.4.1/core/snmp/msg_in.o
 .debug_info    0x0000000000000000      0x983 ./lwip-1.4.1/core/snmp/msg_in.o
 .debug_abbrev  0x0000000000000000      0x1b8 ./lwip-1.4.1/core/snmp/msg_in.o
 .debug_aranges
                0x0000000000000000       0x18 ./lwip-1.4.1/core/snmp/msg_in.o
 .debug_line    0x0000000000000000      0x2c1 ./lwip-1.4.1/core/snmp/msg_in.o
 .debug_str     0x0000000000000000      0x615 ./lwip-1.4.1/core/snmp/msg_in.o
 .comment       0x0000000000000000       0x67 ./lwip-1.4.1/core/snmp/msg_in.o
 .text          0x0000000000000000        0x0 ./lwip-1.4.1/core/snmp/msg_out.o
 .data          0x0000000000000000        0x0 ./lwip-1.4.1/core/snmp/msg_out.o
 .bss           0x0000000000000000        0x0 ./lwip-1.4.1/core/snmp/msg_out.o
 .debug_info    0x0000000000000000      0x983 ./lwip-1.4.1/core/snmp/msg_out.o
 .debug_abbrev  0x0000000000000000      0x1b8 ./lwip-1.4.1/core/snmp/msg_out.o
 .debug_aranges
                0x0000000000000000       0x18 ./lwip-1.4.1/core/snmp/msg_out.o
 .debug_line    0x0000000000000000      0x2c1 ./lwip-1.4.1/core/snmp/msg_out.o
 .debug_str     0x0000000000000000      0x616 ./lwip-1.4.1/core/snmp/msg_out.o
 .comment       0x0000000000000000       0x67 ./lwip-1.4.1/core/snmp/msg_out.o
 .text          0x0000000000000000        0x0 ./lwip-1.4.1/core/ipv4/autoip.o
 .data          0x0000000000000000        0x0 ./lwip-1.4.1/core/ipv4/autoip.o
 .bss           0x0000000000000000        0x0 ./lwip-1.4.1/core/ipv4/autoip.o
 .debug_info    0x0000000000000000      0x983 ./lwip-1.4.1/core/ipv4/autoip.o
 .debug_abbrev  0x0000000000000000      0x1b8 ./lwip-1.4.1/core/ipv4/autoip.o
 .debug_aranges
                0x0000000000000000       0x18 ./lwip-1.4.1/core/ipv4/autoip.o
 .debug_line    0x0000000000000000      0x2c1 ./lwip-1.4.1/core/ipv4/autoip.o
 .debug_str     0x0000000000000000      0x615 ./lwip-1.4.1/core/ipv4/autoip.o
 .comment       0x0000000000000000       0x67 ./lwip-1.4.1/core/ipv4/autoip.o
 .text          0x0000000000000000        0x0 ./lwip-1.4.1/core/ipv4/icmp.o
 .data          0x0000000000000000        0x0 ./lwip-1.4.1/core/ipv4/icmp.o
 .bss           0x0000000000000000        0x0 ./lwip-1.4.1/core/ipv4/icmp.o
 .text          0x0000000000000000        0x0 ./lwip-1.4.1/core/ipv4/igmp.o
 .data          0x0000000000000000        0x0 ./lwip-1.4.1/core/ipv4/igmp.o
 .bss           0x0000000000000000        0x0 ./lwip-1.4.1/core/ipv4/igmp.o
 .text.igmp_stop
                0x0000000000000000       0x58 ./lwip-1.4.1/core/ipv4/igmp.o
 .rodata.igmp_joingroup.str1.4
                0x0000000000000000       0x6b ./lwip-1.4.1/core/ipv4/igmp.o
 .text.igmp_joingroup
                0x0000000000000000      0x138 ./lwip-1.4.1/core/ipv4/igmp.o
 .rodata.igmp_leavegroup.str1.4
                0x0000000000000000       0x6d ./lwip-1.4.1/core/ipv4/igmp.o
 .text.igmp_leavegroup
                0x0000000000000000      0x14c ./lwip-1.4.1/core/ipv4/igmp.o
 .text          0x0000000000000000        0x0 ./lwip-1.4.1/core/ipv4/inet.o
 .data          0x0000000000000000        0x0 ./lwip-1.4.1/core/ipv4/inet.o
 .bss           0x0000000000000000        0x0 ./lwip-1.4.1/core/ipv4/inet.o
 .debug_info    0x0000000000000000      0x9d3 ./lwip-1.4.1/core/ipv4/inet.o
 .debug_abbrev  0x0000000000000000      0x1b8 ./lwip-1.4.1/core/ipv4/inet.o
 .debug_aranges
                0x0000000000000000       0x18 ./lwip-1.4.1/core/ipv4/inet.o
 .debug_line    0x0000000000000000      0x3d2 ./lwip-1.4.1/core/ipv4/inet.o
 .debug_str     0x0000000000000000      0x64e ./lwip-1.4.1/core/ipv4/inet.o
 .comment       0x0000000000000000       0x67 ./lwip-1.4.1/core/ipv4/inet.o
 .text          0x0000000000000000        0x0 ./lwip-1.4.1/core/ipv4/inet_chksum.o
 .data          0x0000000000000000        0x0 ./lwip-1.4.1/core/ipv4/inet_chksum.o
 .bss           0x0000000000000000        0x0 ./lwip-1.4.1/core/ipv4/inet_chksum.o
 .rodata.inet_chksum_pseudo_partial.str1.4
                0x0000000000000000        0xa ./lwip-1.4.1/core/ipv4/inet_chksum.o
 .text.inet_chksum_pseudo_partial
                0x0000000000000000      0x108 ./lwip-1.4.1/core/ipv4/inet_chksum.o
 .text          0x0000000000000000        0x0 ./lwip-1.4.1/core/ipv4/ip.o
 .data          0x0000000000000000        0x0 ./lwip-1.4.1/core/ipv4/ip.o
 .bss           0x0000000000000000        0x0 ./lwip-1.4.1/core/ipv4/ip.o
 .text          0x0000000000000000        0x0 ./lwip-1.4.1/core/ipv4/ip_addr.o
 .data          0x0000000000000000        0x0 ./lwip-1.4.1/core/ipv4/ip_addr.o
 .bss           0x0000000000000000        0x0 ./lwip-1.4.1/core/ipv4/ip_addr.o
 .text.ip4_addr_netmask_valid
                0x0000000000000000       0x36 ./lwip-1.4.1/core/ipv4/ip_addr.o
 .rodata.ipaddr_aton.str1.4
                0x0000000000000000        0xa ./lwip-1.4.1/core/ipv4/ip_addr.o
 .text.ipaddr_aton
                0x0000000000000000      0x188 ./lwip-1.4.1/core/ipv4/ip_addr.o
 .text.ipaddr_addr
                0x0000000000000000       0x1a ./lwip-1.4.1/core/ipv4/ip_addr.o
 .text.ipaddr_ntoa_r
                0x0000000000000000       0xb4 ./lwip-1.4.1/core/ipv4/ip_addr.o
 .text.ipaddr_ntoa
                0x0000000000000000       0x10 ./lwip-1.4.1/core/ipv4/ip_addr.o
 .bss.str.7966  0x0000000000000000       0x10 ./lwip-1.4.1/core/ipv4/ip_addr.o
 .text          0x0000000000000000        0x0 ./lwip-1.4.1/core/ipv4/ip_frag.o
 .data          0x0000000000000000        0x0 ./lwip-1.4.1/core/ipv4/ip_frag.o
 .bss           0x0000000000000000        0x0 ./lwip-1.4.1/core/ipv4/ip_frag.o
 .text          0x0000000000000000        0x0 ./lwip-1.4.1/core/def.o
 .data          0x0000000000000000        0x0 ./lwip-1.4.1/core/def.o
 .bss           0x0000000000000000        0x0 ./lwip-1.4.1/core/def.o
 .text          0x0000000000000000        0x0 ./lwip-1.4.1/core/dhcp.o
 .data          0x0000000000000000        0x0 ./lwip-1.4.1/core/dhcp.o
 .bss           0x0000000000000000        0x0 ./lwip-1.4.1/core/dhcp.o
 .text.dhcp_set_struct
                0x0000000000000000       0xd8 ./lwip-1.4.1/core/dhcp.o
 .text.dhcp_cleanup
                0x0000000000000000       0x54 ./lwip-1.4.1/core/dhcp.o
 .text.dhcp_inform
                0x0000000000000000       0xdc ./lwip-1.4.1/core/dhcp.o
 .text.dhcp_network_changed
                0x0000000000000000       0x38 ./lwip-1.4.1/core/dhcp.o
 .text          0x0000000000000000        0x0 ./lwip-1.4.1/core/dns.o
 .data          0x0000000000000000        0x0 ./lwip-1.4.1/core/dns.o
 .bss           0x0000000000000000        0x0 ./lwip-1.4.1/core/dns.o
 .debug_info    0x0000000000000000      0x983 ./lwip-1.4.1/core/dns.o
 .debug_abbrev  0x0000000000000000      0x1b8 ./lwip-1.4.1/core/dns.o
 .debug_aranges
                0x0000000000000000       0x18 ./lwip-1.4.1/core/dns.o
 .debug_line    0x0000000000000000      0x2c1 ./lwip-1.4.1/core/dns.o
 .debug_str     0x0000000000000000      0x60d ./lwip-1.4.1/core/dns.o
 .comment       0x0000000000000000       0x67 ./lwip-1.4.1/core/dns.o
 .text          0x0000000000000000        0x0 ./lwip-1.4.1/core/init.o
 .data          0x0000000000000000        0x0 ./lwip-1.4.1/core/init.o
 .bss           0x0000000000000000        0x0 ./lwip-1.4.1/core/init.o
 .text          0x0000000000000000        0x0 ./lwip-1.4.1/core/lwip_timers.o
 .data          0x0000000000000000        0x0 ./lwip-1.4.1/core/lwip_timers.o
 .bss           0x0000000000000000        0x0 ./lwip-1.4.1/core/lwip_timers.o
 .text          0x0000000000000000        0x0 ./lwip-1.4.1/core/mem.o
 .data          0x0000000000000000        0x0 ./lwip-1.4.1/core/mem.o
 .bss           0x0000000000000000        0x0 ./lwip-1.4.1/core/mem.o
 .text.mem_calloc
                0x0000000000000000       0x22 ./lwip-1.4.1/core/mem.o
 .text          0x0000000000000000        0x0 ./lwip-1.4.1/core/memp.o
 .data          0x0000000000000000        0x0 ./lwip-1.4.1/core/memp.o
 .bss           0x0000000000000000        0x0 ./lwip-1.4.1/core/memp.o
 .text          0x0000000000000000        0x0 ./lwip-1.4.1/core/netif.o
 .data          0x0000000000000000        0x0 ./lwip-1.4.1/core/netif.o
 .bss           0x0000000000000000        0x0 ./lwip-1.4.1/core/netif.o
 .text.netif_find
                0x0000000000000000       0x40 ./lwip-1.4.1/core/netif.o
 .text.netif_remove
                0x0000000000000000       0x64 ./lwip-1.4.1/core/netif.o
 .text.netif_set_link_up
                0x0000000000000000       0x4c ./lwip-1.4.1/core/netif.o
 .text.netif_set_link_down
                0x0000000000000000       0x14 ./lwip-1.4.1/core/netif.o
 .text          0x0000000000000000        0x0 ./lwip-1.4.1/core/pbuf.o
 .data          0x0000000000000000        0x0 ./lwip-1.4.1/core/pbuf.o
 .bss           0x0000000000000000        0x0 ./lwip-1.4.1/core/pbuf.o
 .rodata.pbuf_dechain.str1.4
                0x0000000000000000       0x39 ./lwip-1.4.1/core/pbuf.o
 .text.pbuf_dechain
                0x0000000000000000       0xc4 ./lwip-1.4.1/core/pbuf.o
 .rodata.pbuf_take.str1.4
                0x0000000000000000       0x62 ./lwip-1.4.1/core/pbuf.o
 .text.pbuf_take
                0x0000000000000000      0x15c ./lwip-1.4.1/core/pbuf.o
 .rodata.pbuf_coalesce.str1.4
                0x0000000000000000       0x11 ./lwip-1.4.1/core/pbuf.o
 .text.pbuf_coalesce
                0x0000000000000000       0x68 ./lwip-1.4.1/core/pbuf.o
 .text.pbuf_get_at
                0x0000000000000000       0x20 ./lwip-1.4.1/core/pbuf.o
 .text.pbuf_memcmp
                0x0000000000000000       0x5c ./lwip-1.4.1/core/pbuf.o
 .text.pbuf_memfind
                0x0000000000000000       0x4a ./lwip-1.4.1/core/pbuf.o
 .text.pbuf_strstr
                0x0000000000000000       0x46 ./lwip-1.4.1/core/pbuf.o
 .text          0x0000000000000000        0x0 ./lwip-1.4.1/core/raw.o
 .data          0x0000000000000000        0x0 ./lwip-1.4.1/core/raw.o
 .bss           0x0000000000000000        0x0 ./lwip-1.4.1/core/raw.o
 .text.raw_connect
                0x0000000000000000        0xe ./lwip-1.4.1/core/raw.o
 .rodata.raw_sendto.str1.4
                0x0000000000000000       0x26 ./lwip-1.4.1/core/raw.o
 .text.raw_sendto
                0x0000000000000000       0xec ./lwip-1.4.1/core/raw.o
 .text.raw_send
                0x0000000000000000        0xa ./lwip-1.4.1/core/raw.o
 .text          0x0000000000000000        0x0 ./lwip-1.4.1/core/stats.o
 .data          0x0000000000000000        0x0 ./lwip-1.4.1/core/stats.o
 .bss           0x0000000000000000        0x0 ./lwip-1.4.1/core/stats.o
 .debug_info    0x0000000000000000      0x983 ./lwip-1.4.1/core/stats.o
 .debug_abbrev  0x0000000000000000      0x1b8 ./lwip-1.4.1/core/stats.o
 .debug_aranges
                0x0000000000000000       0x18 ./lwip-1.4.1/core/stats.o
 .debug_line    0x0000000000000000      0x2c1 ./lwip-1.4.1/core/stats.o
 .debug_str     0x0000000000000000      0x60f ./lwip-1.4.1/core/stats.o
 .comment       0x0000000000000000       0x67 ./lwip-1.4.1/core/stats.o
 .text          0x0000000000000000        0x0 ./lwip-1.4.1/core/sys.o
 .data          0x0000000000000000        0x0 ./lwip-1.4.1/core/sys.o
 .bss           0x0000000000000000        0x0 ./lwip-1.4.1/core/sys.o
 .text          0x0000000000000000        0x0 ./lwip-1.4.1/core/tcp.o
 .data          0x0000000000000000        0x0 ./lwip-1.4.1/core/tcp.o
 .bss           0x0000000000000000        0x0 ./lwip-1.4.1/core/tcp.o
 .text.tcp_setprio
                0x0000000000000000        0x4 ./lwip-1.4.1/core/tcp.o
 .rodata.tcp_connect.str1.4
                0x0000000000000000       0x30 ./lwip-1.4.1/core/tcp.o
 .text.tcp_connect
                0x0000000000000000      0x1ac ./lwip-1.4.1/core/tcp.o
 .text.tcp_debug_state_str
                0x0000000000000000        0xc ./lwip-1.4.1/core/tcp.o
 .rodata.str1.4
                0x0000000000000000       0x76 ./lwip-1.4.1/core/tcp.o
 .rodata.tcp_state_str
                0x0000000000000000       0x2c ./lwip-1.4.1/core/tcp.o
 .text          0x0000000000000000        0x0 ./lwip-1.4.1/core/tcp_in.o
 .data          0x0000000000000000        0x0 ./lwip-1.4.1/core/tcp_in.o
 .bss           0x0000000000000000        0x0 ./lwip-1.4.1/core/tcp_in.o
 .text          0x0000000000000000        0x0 ./lwip-1.4.1/core/tcp_out.o
 .data          0x0000000000000000        0x0 ./lwip-1.4.1/core/tcp_out.o
 .bss           0x0000000000000000        0x0 ./lwip-1.4.1/core/tcp_out.o
 .text          0x0000000000000000        0x0 ./lwip-1.4.1/core/udp.o
 .data          0x0000000000000000        0x0 ./lwip-1.4.1/core/udp.o
 .bss           0x0000000000000000        0x0 ./lwip-1.4.1/core/udp.o
 .text.udp_sendto
                0x0000000000000000       0x38 ./lwip-1.4.1/core/udp.o
 .text.udp_send
                0x0000000000000000        0xe ./lwip-1.4.1/core/udp.o
 .text.udp_disconnect
                0x0000000000000000       0x10 ./lwip-1.4.1/core/udp.o
 .text          0x0000000000000000        0x0 ./lwip-1.4.1/api/api_lib.o
 .data          0x0000000000000000        0x0 ./lwip-1.4.1/api/api_lib.o
 .bss           0x0000000000000000        0x0 ./lwip-1.4.1/api/api_lib.o
 .rodata.netconn_getaddr.str1.4
                0x0000000000000000       0x5e ./lwip-1.4.1/api/api_lib.o
 .text.netconn_getaddr
                0x0000000000000000      0x10c ./lwip-1.4.1/api/api_lib.o
 .rodata.netconn_connect.str1.4
                0x0000000000000000       0x1e ./lwip-1.4.1/api/api_lib.o
 .text.netconn_connect
                0x0000000000000000       0x7c ./lwip-1.4.1/api/api_lib.o
 .rodata.netconn_disconnect.str1.4
                0x0000000000000000       0x21 ./lwip-1.4.1/api/api_lib.o
 .text.netconn_disconnect
                0x0000000000000000       0x78 ./lwip-1.4.1/api/api_lib.o
 .text.netconn_recv_tcp_pbuf
                0x0000000000000000       0x58 ./lwip-1.4.1/api/api_lib.o
 .text.netconn_recved
                0x0000000000000000       0x30 ./lwip-1.4.1/api/api_lib.o
 .rodata.netconn_send.str1.4
                0x0000000000000000       0x1b ./lwip-1.4.1/api/api_lib.o
 .text.netconn_send
                0x0000000000000000       0x78 ./lwip-1.4.1/api/api_lib.o
 .text.netconn_sendto
                0x0000000000000000       0x20 ./lwip-1.4.1/api/api_lib.o
 .text.netconn_shutdown
                0x0000000000000000       0x1a ./lwip-1.4.1/api/api_lib.o
 .rodata.netconn_join_leave_group.str1.4
                0x0000000000000000       0x27 ./lwip-1.4.1/api/api_lib.o
 .text.netconn_join_leave_group
                0x0000000000000000       0x80 ./lwip-1.4.1/api/api_lib.o
 .text          0x0000000000000000        0x0 ./lwip-1.4.1/api/api_msg.o
 .data          0x0000000000000000        0x0 ./lwip-1.4.1/api/api_msg.o
 .bss           0x0000000000000000        0x0 ./lwip-1.4.1/api/api_msg.o
 .rodata.do_connected.str1.4
                0x0000000000000000       0x5d ./lwip-1.4.1/api/api_msg.o
 .text.do_connected
                0x0000000000000000      0x12c ./lwip-1.4.1/api/api_msg.o
 .rodata.do_connect.str1.4
                0x0000000000000000       0x15 ./lwip-1.4.1/api/api_msg.o
 .text.do_connect
                0x0000000000000000       0xe4 ./lwip-1.4.1/api/api_msg.o
 .text.do_disconnect
                0x0000000000000000       0x2a ./lwip-1.4.1/api/api_msg.o
 .text.do_send  0x0000000000000000       0x70 ./lwip-1.4.1/api/api_msg.o
 .rodata.do_getaddr.str1.4
                0x0000000000000000       0x15 ./lwip-1.4.1/api/api_msg.o
 .text.do_getaddr
                0x0000000000000000       0xcc ./lwip-1.4.1/api/api_msg.o
 .text.do_join_leave_group
                0x0000000000000000       0x52 ./lwip-1.4.1/api/api_msg.o
 .text          0x0000000000000000        0x0 ./lwip-1.4.1/api/err.o
 .data          0x0000000000000000        0x0 ./lwip-1.4.1/api/err.o
 .bss           0x0000000000000000        0x0 ./lwip-1.4.1/api/err.o
 .debug_info    0x0000000000000000      0x983 ./lwip-1.4.1/api/err.o
 .debug_abbrev  0x0000000000000000      0x1b8 ./lwip-1.4.1/api/err.o
 .debug_aranges
                0x0000000000000000       0x18 ./lwip-1.4.1/api/err.o
 .debug_line    0x0000000000000000      0x2c1 ./lwip-1.4.1/api/err.o
 .debug_str     0x0000000000000000      0x60c ./lwip-1.4.1/api/err.o
 .comment       0x0000000000000000       0x67 ./lwip-1.4.1/api/err.o
 .text          0x0000000000000000        0x0 ./lwip-1.4.1/api/netbuf.o
 .data          0x0000000000000000        0x0 ./lwip-1.4.1/api/netbuf.o
 .bss           0x0000000000000000        0x0 ./lwip-1.4.1/api/netbuf.o
 .text.netbuf_new
                0x0000000000000000       0x1a ./lwip-1.4.1/api/netbuf.o
 .rodata.netbuf_alloc.str1.4
                0x0000000000000000       0x40 ./lwip-1.4.1/api/netbuf.o
 .text.netbuf_alloc
                0x0000000000000000       0xac ./lwip-1.4.1/api/netbuf.o
 .rodata.netbuf_free.str1.4
                0x0000000000000000       0x19 ./lwip-1.4.1/api/netbuf.o
 .text.netbuf_free
                0x0000000000000000       0x54 ./lwip-1.4.1/api/netbuf.o
 .rodata.netbuf_ref.str1.4
                0x0000000000000000       0x18 ./lwip-1.4.1/api/netbuf.o
 .text.netbuf_ref
                0x0000000000000000       0x80 ./lwip-1.4.1/api/netbuf.o
 .rodata.netbuf_chain.str1.4
                0x0000000000000000       0x37 ./lwip-1.4.1/api/netbuf.o
 .text.netbuf_chain
                0x0000000000000000       0x9c ./lwip-1.4.1/api/netbuf.o
 .text.netbuf_next
                0x0000000000000000       0x5c ./lwip-1.4.1/api/netbuf.o
 .text.netbuf_first
                0x0000000000000000       0x48 ./lwip-1.4.1/api/netbuf.o
 .text          0x0000000000000000        0x0 ./lwip-1.4.1/api/netdb.o
 .data          0x0000000000000000        0x0 ./lwip-1.4.1/api/netdb.o
 .bss           0x0000000000000000        0x0 ./lwip-1.4.1/api/netdb.o
 .debug_info    0x0000000000000000      0x983 ./lwip-1.4.1/api/netdb.o
 .debug_abbrev  0x0000000000000000      0x1b8 ./lwip-1.4.1/api/netdb.o
 .debug_aranges
                0x0000000000000000       0x18 ./lwip-1.4.1/api/netdb.o
 .debug_line    0x0000000000000000      0x2c1 ./lwip-1.4.1/api/netdb.o
 .debug_str     0x0000000000000000      0x60e ./lwip-1.4.1/api/netdb.o
 .comment       0x0000000000000000       0x67 ./lwip-1.4.1/api/netdb.o
 .text          0x0000000000000000        0x0 ./lwip-1.4.1/api/netifapi.o
 .data          0x0000000000000000        0x0 ./lwip-1.4.1/api/netifapi.o
 .bss           0x0000000000000000        0x0 ./lwip-1.4.1/api/netifapi.o
 .debug_info    0x0000000000000000      0x983 ./lwip-1.4.1/api/netifapi.o
 .debug_abbrev  0x0000000000000000      0x1b8 ./lwip-1.4.1/api/netifapi.o
 .debug_aranges
                0x0000000000000000       0x18 ./lwip-1.4.1/api/netifapi.o
 .debug_line    0x0000000000000000      0x2c1 ./lwip-1.4.1/api/netifapi.o
 .debug_str     0x0000000000000000      0x611 ./lwip-1.4.1/api/netifapi.o
 .comment       0x0000000000000000       0x67 ./lwip-1.4.1/api/netifapi.o
 .text          0x0000000000000000        0x0 ./lwip-1.4.1/api/sockets.o
 .data          0x0000000000000000        0x0 ./lwip-1.4.1/api/sockets.o
 .bss           0x0000000000000000        0x0 ./lwip-1.4.1/api/sockets.o
 .text.get_socket
                0x0000000000000000       0x28 ./lwip-1.4.1/api/sockets.o
 .text.lwip_getaddrname
                0x0000000000000000       0x68 ./lwip-1.4.1/api/sockets.o
 .text.alloc_socket
                0x0000000000000000       0x6c ./lwip-1.4.1/api/sockets.o
 .rodata.lwip_selscan.str1.4
                0x0000000000000000        0xc ./lwip-1.4.1/api/sockets.o
 .text.lwip_selscan
                0x0000000000000000      0x1d0 ./lwip-1.4.1/api/sockets.o
 .rodata.event_callback.str1.4
                0x0000000000000000        0xe ./lwip-1.4.1/api/sockets.o
 .text.event_callback
                0x0000000000000000      0x198 ./lwip-1.4.1/api/sockets.o
 .rodata.lwip_getsockopt_internal.str1.4
                0x0000000000000000       0x30 ./lwip-1.4.1/api/sockets.o
 .text.lwip_getsockopt_internal
                0x0000000000000000      0x2b4 ./lwip-1.4.1/api/sockets.o
 .text.lwip_setsockopt_internal
                0x0000000000000000      0x2a0 ./lwip-1.4.1/api/sockets.o
 .rodata.lwip_accept.str1.4
                0x0000000000000000       0x68 ./lwip-1.4.1/api/sockets.o
 .text.lwip_accept
                0x0000000000000000      0x238 ./lwip-1.4.1/api/sockets.o
 .rodata.lwip_bind.str1.4
                0x0000000000000000       0x1b ./lwip-1.4.1/api/sockets.o
 .text.lwip_bind
                0x0000000000000000       0xb4 ./lwip-1.4.1/api/sockets.o
 .rodata.lwip_close.str1.4
                0x0000000000000000       0x17 ./lwip-1.4.1/api/sockets.o
 .text.lwip_close
                0x0000000000000000       0xb0 ./lwip-1.4.1/api/sockets.o
 .rodata.lwip_connect.str1.4
                0x0000000000000000       0x1e ./lwip-1.4.1/api/sockets.o
 .text.lwip_connect
                0x0000000000000000       0xb4 ./lwip-1.4.1/api/sockets.o
 .text.lwip_listen
                0x0000000000000000       0x50 ./lwip-1.4.1/api/sockets.o
 .rodata.lwip_recvfrom.str1.4
                0x0000000000000000       0x31 ./lwip-1.4.1/api/sockets.o
 .text.lwip_recvfrom
                0x0000000000000000      0x284 ./lwip-1.4.1/api/sockets.o
 .text.lwip_read
                0x0000000000000000       0x14 ./lwip-1.4.1/api/sockets.o
 .text.lwip_recv
                0x0000000000000000       0x12 ./lwip-1.4.1/api/sockets.o
 .rodata.lwip_sendto.str1.4
                0x0000000000000000       0x41 ./lwip-1.4.1/api/sockets.o
 .text.lwip_sendto
                0x0000000000000000      0x174 ./lwip-1.4.1/api/sockets.o
 .text.lwip_send
                0x0000000000000000       0x80 ./lwip-1.4.1/api/sockets.o
 .text.lwip_socket
                0x0000000000000000       0x88 ./lwip-1.4.1/api/sockets.o
 .text.lwip_write
                0x0000000000000000        0xa ./lwip-1.4.1/api/sockets.o
 .rodata.lwip_select.str1.4
                0x0000000000000000       0x77 ./lwip-1.4.1/api/sockets.o
 .text.lwip_select
                0x0000000000000000      0x44c ./lwip-1.4.1/api/sockets.o
 .text.lwip_shutdown
                0x0000000000000000       0x6c ./lwip-1.4.1/api/sockets.o
 .text.lwip_getpeername
                0x0000000000000000        0xa ./lwip-1.4.1/api/sockets.o
 .text.lwip_getsockname
                0x0000000000000000        0xa ./lwip-1.4.1/api/sockets.o
 .text.lwip_getsockopt
                0x0000000000000000      0x1b0 ./lwip-1.4.1/api/sockets.o
 .text.lwip_setsockopt
                0x0000000000000000      0x1e0 ./lwip-1.4.1/api/sockets.o
 .text.lwip_ioctl
                0x0000000000000000       0x54 ./lwip-1.4.1/api/sockets.o
 .text.lwip_fcntl
                0x0000000000000000       0x64 ./lwip-1.4.1/api/sockets.o
 .bss.select_cb_ctr
                0x0000000000000000        0x4 ./lwip-1.4.1/api/sockets.o
 .bss.select_cb_list
                0x0000000000000000        0x4 ./lwip-1.4.1/api/sockets.o
 .bss.sockets   0x0000000000000000       0x90 ./lwip-1.4.1/api/sockets.o
 .rodata.err_to_errno_table
                0x0000000000000000       0x40 ./lwip-1.4.1/api/sockets.o
 .text          0x0000000000000000        0x0 ./lwip-1.4.1/api/tcpip.o
 .data          0x0000000000000000        0x0 ./lwip-1.4.1/api/tcpip.o
 .bss           0x0000000000000000        0x0 ./lwip-1.4.1/api/tcpip.o
 .text.pbuf_free_int
                0x0000000000000000        0x8 ./lwip-1.4.1/api/tcpip.o
 .text.tcpip_timeout
                0x0000000000000000       0x40 ./lwip-1.4.1/api/tcpip.o
 .text.tcpip_untimeout
                0x0000000000000000       0x3c ./lwip-1.4.1/api/tcpip.o
 .text.tcpip_callbackmsg_new
                0x0000000000000000       0x1c ./lwip-1.4.1/api/tcpip.o
 .text.tcpip_callbackmsg_delete
                0x0000000000000000        0xc ./lwip-1.4.1/api/tcpip.o
 .text.tcpip_trycallback
                0x0000000000000000       0x20 ./lwip-1.4.1/api/tcpip.o
 .text.pbuf_free_callback
                0x0000000000000000       0x14 ./lwip-1.4.1/api/tcpip.o
 .text.mem_free_callback
                0x0000000000000000       0x14 ./lwip-1.4.1/api/tcpip.o
 .text          0x0000000000000000        0xe ./hal/CortexM3/GNU/hal.o
 .data          0x0000000000000000        0x0 ./hal/CortexM3/GNU/hal.o
 .bss           0x0000000000000000        0x0 ./hal/CortexM3/GNU/hal.o
 .debug_line    0x0000000000000000       0x4d ./hal/CortexM3/GNU/hal.o
 .debug_info    0x0000000000000000       0x26 ./hal/CortexM3/GNU/hal.o
 .debug_abbrev  0x0000000000000000       0x14 ./hal/CortexM3/GNU/hal.o
 .debug_aranges
                0x0000000000000000       0x20 ./hal/CortexM3/GNU/hal.o
 .debug_str     0x0000000000000000       0x8d ./hal/CortexM3/GNU/hal.o
 .text          0x0000000000000000       0x90 ./hal/CortexM3/GNU/hw_reg_access.o
 .data          0x0000000000000000        0x0 ./hal/CortexM3/GNU/hw_reg_access.o
 .bss           0x0000000000000000        0x0 ./hal/CortexM3/GNU/hw_reg_access.o
 .debug_line    0x0000000000000000       0x8b ./hal/CortexM3/GNU/hw_reg_access.o
 .debug_info    0x0000000000000000       0x26 ./hal/CortexM3/GNU/hw_reg_access.o
 .debug_abbrev  0x0000000000000000       0x14 ./hal/CortexM3/GNU/hw_reg_access.o
 .debug_aranges
                0x0000000000000000       0x20 ./hal/CortexM3/GNU/hw_reg_access.o
 .debug_str     0x0000000000000000       0x97 ./hal/CortexM3/GNU/hw_reg_access.o
 .text          0x0000000000000000        0x0 ./hal/CortexM3/cortex_nvic.o
 .data          0x0000000000000000        0x0 ./hal/CortexM3/cortex_nvic.o
 .bss           0x0000000000000000        0x0 ./hal/CortexM3/cortex_nvic.o
 .text.NVIC_init
                0x0000000000000000        0x4 ./hal/CortexM3/cortex_nvic.o
 .text.NVIC_set_handler
                0x0000000000000000        0x4 ./hal/CortexM3/cortex_nvic.o
 .text.NVIC_set_priority
                0x0000000000000000        0x4 ./hal/CortexM3/cortex_nvic.o
 .text.NVIC_enable_interrupt
                0x0000000000000000        0x4 ./hal/CortexM3/cortex_nvic.o
 .text.NVIC_disable_interrupt
                0x0000000000000000        0x4 ./hal/CortexM3/cortex_nvic.o
 .text.NVIC_clear_interrupt
                0x0000000000000000        0x4 ./hal/CortexM3/cortex_nvic.o
 .debug_info    0x0000000000000000      0x196 ./hal/CortexM3/cortex_nvic.o
 .debug_abbrev  0x0000000000000000       0x90 ./hal/CortexM3/cortex_nvic.o
 .debug_aranges
                0x0000000000000000       0x48 ./hal/CortexM3/cortex_nvic.o
 .debug_ranges  0x0000000000000000       0x38 ./hal/CortexM3/cortex_nvic.o
 .debug_line    0x0000000000000000      0x1ea ./hal/CortexM3/cortex_nvic.o
 .debug_str     0x0000000000000000      0x2ae ./hal/CortexM3/cortex_nvic.o
 .comment       0x0000000000000000       0x67 ./hal/CortexM3/cortex_nvic.o
 .debug_frame   0x0000000000000000       0x70 ./hal/CortexM3/cortex_nvic.o
 .text          0x0000000000000000        0x0 ./drivers_config/sys_config/sys_config.o
 .data          0x0000000000000000        0x0 ./drivers_config/sys_config/sys_config.o
 .bss           0x0000000000000000        0x0 ./drivers_config/sys_config/sys_config.o
 .debug_info    0x0000000000000000       0x8e ./drivers_config/sys_config/sys_config.o
 .debug_abbrev  0x0000000000000000       0x4f ./drivers_config/sys_config/sys_config.o
 .debug_aranges
                0x0000000000000000       0x18 ./drivers_config/sys_config/sys_config.o
 .debug_line    0x0000000000000000      0x145 ./drivers_config/sys_config/sys_config.o
 .debug_str     0x0000000000000000      0x205 ./drivers_config/sys_config/sys_config.o
 .comment       0x0000000000000000       0x67 ./drivers_config/sys_config/sys_config.o
 .text          0x0000000000000000        0x0 ./drivers_config/sys_config/sys_config_SERDESIF_0.o
 .data          0x0000000000000000        0x0 ./drivers_config/sys_config/sys_config_SERDESIF_0.o
 .bss           0x0000000000000000        0x0 ./drivers_config/sys_config/sys_config_SERDESIF_0.o
 .text          0x0000000000000000        0x0 ./drivers/mss_uart/mss_uart.o
 .data          0x0000000000000000        0x0 ./drivers/mss_uart/mss_uart.o
 .bss           0x0000000000000000        0x0 ./drivers/mss_uart/mss_uart.o
 .text.MSS_UART_lin_init
                0x0000000000000000       0x74 ./drivers/mss_uart/mss_uart.o
 .text.MSS_UART_irda_init
                0x0000000000000000      0x13c ./drivers/mss_uart/mss_uart.o
 .text.MSS_UART_smartcard_init
                0x0000000000000000       0x9c ./drivers/mss_uart/mss_uart.o
 .text.MSS_UART_polled_tx_string
                0x0000000000000000       0x6c ./drivers/mss_uart/mss_uart.o
 .text.MSS_UART_irq_tx
                0x0000000000000000       0x90 ./drivers/mss_uart/mss_uart.o
 .text.MSS_UART_set_rx_handler
                0x0000000000000000       0x94 ./drivers/mss_uart/mss_uart.o
 .text.MSS_UART_set_loopback
                0x0000000000000000       0xac ./drivers/mss_uart/mss_uart.o
 .text.MSS_UART_set_rxstatus_handler
                0x0000000000000000       0x7c ./drivers/mss_uart/mss_uart.o
 .text.MSS_UART_set_modemstatus_handler
                0x0000000000000000       0x7c ./drivers/mss_uart/mss_uart.o
 .text.MSS_UART_get_rx_status
                0x0000000000000000       0x30 ./drivers/mss_uart/mss_uart.o
 .text.MSS_UART_get_modem_status
                0x0000000000000000       0x24 ./drivers/mss_uart/mss_uart.o
 .text.MSS_UART_get_tx_status
                0x0000000000000000       0x2c ./drivers/mss_uart/mss_uart.o
 .text.MSS_UART_set_break
                0x0000000000000000       0x38 ./drivers/mss_uart/mss_uart.o
 .text.MSS_UART_clear_break
                0x0000000000000000       0x38 ./drivers/mss_uart/mss_uart.o
 .text.MSS_UART_set_pidpei_handler
                0x0000000000000000       0x7c ./drivers/mss_uart/mss_uart.o
 .text.MSS_UART_set_linbreak_handler
                0x0000000000000000       0x7c ./drivers/mss_uart/mss_uart.o
 .text.MSS_UART_set_linsync_handler
                0x0000000000000000       0x7c ./drivers/mss_uart/mss_uart.o
 .text.MSS_UART_set_nack_handler
                0x0000000000000000       0x7c ./drivers/mss_uart/mss_uart.o
 .text.MSS_UART_set_rx_timeout_handler
                0x0000000000000000       0x7c ./drivers/mss_uart/mss_uart.o
 .text.MSS_UART_enable_half_duplex
                0x0000000000000000       0x38 ./drivers/mss_uart/mss_uart.o
 .text.MSS_UART_disable_half_duplex
                0x0000000000000000       0x38 ./drivers/mss_uart/mss_uart.o
 .text.MSS_UART_set_rx_endian
                0x0000000000000000       0x70 ./drivers/mss_uart/mss_uart.o
 .text.MSS_UART_set_tx_endian
                0x0000000000000000       0x70 ./drivers/mss_uart/mss_uart.o
 .text.MSS_UART_set_filter_length
                0x0000000000000000       0x38 ./drivers/mss_uart/mss_uart.o
 .text.MSS_UART_enable_afm
                0x0000000000000000       0x38 ./drivers/mss_uart/mss_uart.o
 .text.MSS_UART_disable_afm
                0x0000000000000000       0x38 ./drivers/mss_uart/mss_uart.o
 .text.MSS_UART_enable_afclear
                0x0000000000000000       0x38 ./drivers/mss_uart/mss_uart.o
 .text.MSS_UART_disable_afclear
                0x0000000000000000       0x38 ./drivers/mss_uart/mss_uart.o
 .text.MSS_UART_enable_rx_timeout
                0x0000000000000000       0x3c ./drivers/mss_uart/mss_uart.o
 .text.MSS_UART_disable_rx_timeout
                0x0000000000000000       0x38 ./drivers/mss_uart/mss_uart.o
 .text.MSS_UART_enable_tx_time_guard
                0x0000000000000000       0x3c ./drivers/mss_uart/mss_uart.o
 .text.MSS_UART_disable_tx_time_guard
                0x0000000000000000       0x38 ./drivers/mss_uart/mss_uart.o
 .text.MSS_UART_set_address
                0x0000000000000000       0x20 ./drivers/mss_uart/mss_uart.o
 .text.MSS_UART_set_ready_mode
                0x0000000000000000       0x70 ./drivers/mss_uart/mss_uart.o
 .text.MSS_UART_set_usart_mode
                0x0000000000000000       0x4c ./drivers/mss_uart/mss_uart.o
 .text          0x0000000000000000        0x0 ./drivers/mss_sys_services/mss_comblk.o
 .data          0x0000000000000000        0x0 ./drivers/mss_sys_services/mss_comblk.o
 .bss           0x0000000000000000        0x0 ./drivers/mss_sys_services/mss_comblk.o
 .text.send_cmd_opcode
                0x0000000000000000       0x1c ./drivers/mss_sys_services/mss_comblk.o
 .text.MSS_COMBLK_init
                0x0000000000000000       0xa4 ./drivers/mss_sys_services/mss_comblk.o
 .text.MSS_COMBLK_send_cmd_with_ptr
                0x0000000000000000       0xd0 ./drivers/mss_sys_services/mss_comblk.o
 .text.MSS_COMBLK_send_cmd
                0x0000000000000000       0xf8 ./drivers/mss_sys_services/mss_comblk.o
 .text.MSS_COMBLK_send_paged_cmd
                0x0000000000000000       0xe4 ./drivers/mss_sys_services/mss_comblk.o
 .text          0x0000000000000000        0x0 ./drivers/mss_sys_services/mss_sys_services.o
 .data          0x0000000000000000        0x0 ./drivers/mss_sys_services/mss_sys_services.o
 .bss           0x0000000000000000        0x0 ./drivers/mss_sys_services/mss_sys_services.o
 .text.determine_seq
                0x0000000000000000       0x60 ./drivers/mss_sys_services/mss_sys_services.o
 .text.clk_switching_fix
                0x0000000000000000      0x1a0 ./drivers/mss_sys_services/mss_sys_services.o
 .text.asynchronous_event_handler
                0x0000000000000000      0x1b8 ./drivers/mss_sys_services/mss_sys_services.o
 .text.isp_page_read_handler
                0x0000000000000000       0x58 ./drivers/mss_sys_services/mss_sys_services.o
 .text.isp_sys_completion_handler
                0x0000000000000000       0x38 ./drivers/mss_sys_services/mss_sys_services.o
 .text.request_completion_handler
                0x0000000000000000       0x14 ./drivers/mss_sys_services/mss_sys_services.o
 .text.signal_request_start
                0x0000000000000000       0x20 ./drivers/mss_sys_services/mss_sys_services.o
 .text.wait_for_request_completion
                0x0000000000000000       0x18 ./drivers/mss_sys_services/mss_sys_services.o
 .text.write_ptr_value_into_array
                0x0000000000000000       0x12 ./drivers/mss_sys_services/mss_sys_services.o
 .text.execute_service
                0x0000000000000000       0x40 ./drivers/mss_sys_services/mss_sys_services.o
 .text.MSS_SYS_init
                0x0000000000000000       0x40 ./drivers/mss_sys_services/mss_sys_services.o
 .text.MSS_SYS_get_serial_number
                0x0000000000000000       0x16 ./drivers/mss_sys_services/mss_sys_services.o
 .text.MSS_SYS_get_user_code
                0x0000000000000000       0x16 ./drivers/mss_sys_services/mss_sys_services.o
 .text.MSS_SYS_get_design_version
                0x0000000000000000       0x16 ./drivers/mss_sys_services/mss_sys_services.o
 .text.MSS_SYS_get_device_certificate
                0x0000000000000000       0x16 ./drivers/mss_sys_services/mss_sys_services.o
 .text.MSS_SYS_get_secondary_device_certificate
                0x0000000000000000       0x68 ./drivers/mss_sys_services/mss_sys_services.o
 .text.MSS_SYS_flash_freeze
                0x0000000000000000       0x9c ./drivers/mss_sys_services/mss_sys_services.o
 .text.MSS_SYS_128bit_aes
                0x0000000000000000       0x5c ./drivers/mss_sys_services/mss_sys_services.o
 .text.MSS_SYS_256bit_aes
                0x0000000000000000       0x66 ./drivers/mss_sys_services/mss_sys_services.o
 .text.MSS_SYS_sha256
                0x0000000000000000       0x42 ./drivers/mss_sys_services/mss_sys_services.o
 .text.MSS_SYS_hmac
                0x0000000000000000       0x5c ./drivers/mss_sys_services/mss_sys_services.o
 .text.MSS_SYS_key_tree
                0x0000000000000000       0x6a ./drivers/mss_sys_services/mss_sys_services.o
 .text.MSS_SYS_challenge_response
                0x0000000000000000       0x46 ./drivers/mss_sys_services/mss_sys_services.o
 .text.MSS_SYS_nrbg_reset
                0x0000000000000000       0x58 ./drivers/mss_sys_services/mss_sys_services.o
 .text.MSS_SYS_nrbg_self_test
                0x0000000000000000       0x50 ./drivers/mss_sys_services/mss_sys_services.o
 .text.MSS_SYS_nrbg_instantiate
                0x0000000000000000       0x38 ./drivers/mss_sys_services/mss_sys_services.o
 .text.MSS_SYS_nrbg_generate
                0x0000000000000000       0x46 ./drivers/mss_sys_services/mss_sys_services.o
 .text.MSS_SYS_nrbg_reseed
                0x0000000000000000       0x28 ./drivers/mss_sys_services/mss_sys_services.o
 .text.MSS_SYS_nrbg_uninstantiate
                0x0000000000000000       0x50 ./drivers/mss_sys_services/mss_sys_services.o
 .text.MSS_SYS_zeroize_device
                0x0000000000000000       0x7c ./drivers/mss_sys_services/mss_sys_services.o
 .text.MSS_SYS_check_digest
                0x0000000000000000       0xb4 ./drivers/mss_sys_services/mss_sys_services.o
 .text.MSS_SYS_start_isp
                0x0000000000000000       0xc4 ./drivers/mss_sys_services/mss_sys_services.o
 .text.MSS_SYS_initiate_iap
                0x0000000000000000       0xd8 ./drivers/mss_sys_services/mss_sys_services.o
 .text.MSS_SYS_puf_get_number_of_keys
                0x0000000000000000       0x84 ./drivers/mss_sys_services/mss_sys_services.o
 .text.MSS_SYS_puf_create_activation_code
                0x0000000000000000       0x80 ./drivers/mss_sys_services/mss_sys_services.o
 .text.MSS_SYS_puf_delete_activation_code
                0x0000000000000000       0x80 ./drivers/mss_sys_services/mss_sys_services.o
 .text.MSS_SYS_puf_enroll_key
                0x0000000000000000       0xa8 ./drivers/mss_sys_services/mss_sys_services.o
 .text.MSS_SYS_puf_delete_key
                0x0000000000000000       0x84 ./drivers/mss_sys_services/mss_sys_services.o
 .text.MSS_SYS_puf_fetch_key
                0x0000000000000000       0x98 ./drivers/mss_sys_services/mss_sys_services.o
 .text.MSS_SYS_puf_export_keycodes
                0x0000000000000000       0x78 ./drivers/mss_sys_services/mss_sys_services.o
 .text.MSS_SYS_puf_import_keycodes
                0x0000000000000000       0x78 ./drivers/mss_sys_services/mss_sys_services.o
 .text.MSS_SYS_puf_fetch_ecc_public_key
                0x0000000000000000       0x70 ./drivers/mss_sys_services/mss_sys_services.o
 .text.MSS_SYS_puf_get_random_seed
                0x0000000000000000       0x70 ./drivers/mss_sys_services/mss_sys_services.o
 .text.MSS_SYS_ecc_point_multiplication
                0x0000000000000000       0x88 ./drivers/mss_sys_services/mss_sys_services.o
 .text.MSS_SYS_ecc_point_addition
                0x0000000000000000       0x88 ./drivers/mss_sys_services/mss_sys_services.o
 .rodata.MSS_SYS_ecc_get_base_point.str1.4
                0x0000000000000000       0x61 ./drivers/mss_sys_services/mss_sys_services.o
 .text.MSS_SYS_ecc_get_base_point
                0x0000000000000000       0x24 ./drivers/mss_sys_services/mss_sys_services.o
 .text.MSS_SYS_start_clock_monitor
                0x0000000000000000       0xa4 ./drivers/mss_sys_services/mss_sys_services.o
 .text.MSS_SYS_stop_clock_monitor
                0x0000000000000000       0xa0 ./drivers/mss_sys_services/mss_sys_services.o
 .text.MSS_SYS_enable_puf_power_down
                0x0000000000000000       0xa4 ./drivers/mss_sys_services/mss_sys_services.o
 .text.MSS_SYS_disable_puf_power_down
                0x0000000000000000       0xa4 ./drivers/mss_sys_services/mss_sys_services.o
 .text.MSS_SYS_clear_lock_parity
                0x0000000000000000       0xa4 ./drivers/mss_sys_services/mss_sys_services.o
 .text.MSS_SYS_clear_mesh_short
                0x0000000000000000       0xa4 ./drivers/mss_sys_services/mss_sys_services.o
 .bss.divisor   0x0000000000000000       0x10 ./drivers/mss_sys_services/mss_sys_services.o
 .bss.g_event_handler
                0x0000000000000000        0x4 ./drivers/mss_sys_services/mss_sys_services.o
 .bss.g_initial_mssddr_facc1_cr
                0x0000000000000000        0x4 ./drivers/mss_sys_services/mss_sys_services.o
 .bss.g_initial_mssddr_facc2_cr
                0x0000000000000000        0x4 ./drivers/mss_sys_services/mss_sys_services.o
 .bss.g_isp_completion_handler
                0x0000000000000000        0x4 ./drivers/mss_sys_services/mss_sys_services.o
 .bss.g_isp_page_read_handler
                0x0000000000000000        0x4 ./drivers/mss_sys_services/mss_sys_services.o
 .bss.g_isp_response
                0x0000000000000000        0x2 ./drivers/mss_sys_services/mss_sys_services.o
 .bss.g_last_response_length
                0x0000000000000000        0x2 ./drivers/mss_sys_services/mss_sys_services.o
 .bss.g_mode    0x0000000000000000        0x1 ./drivers/mss_sys_services/mss_sys_services.o
 .bss.g_request_in_progress
                0x0000000000000000        0x1 ./drivers/mss_sys_services/mss_sys_services.o
 .bss.g_response
                0x0000000000000000        0x2 ./drivers/mss_sys_services/mss_sys_services.o
 .bss.ind       0x0000000000000000        0x1 ./drivers/mss_sys_services/mss_sys_services.o
 .data.div16_seq
                0x0000000000000000        0x2 ./drivers/mss_sys_services/mss_sys_services.o
 .data.div1_seq
                0x0000000000000000        0x4 ./drivers/mss_sys_services/mss_sys_services.o
 .data.div2_seq
                0x0000000000000000        0x3 ./drivers/mss_sys_services/mss_sys_services.o
 .data.div32_seq
                0x0000000000000000        0x2 ./drivers/mss_sys_services/mss_sys_services.o
 .data.div4_seq
                0x0000000000000000        0x5 ./drivers/mss_sys_services/mss_sys_services.o
 .data.div8_seq
                0x0000000000000000        0x3 ./drivers/mss_sys_services/mss_sys_services.o
 .data.g_initial_envm_cr
                0x0000000000000000        0x4 ./drivers/mss_sys_services/mss_sys_services.o
 .data.wait_for_clock_switch
                0x0000000000000000        0x1 ./drivers/mss_sys_services/mss_sys_services.o
 .debug_info    0x0000000000000000     0x37f9 ./drivers/mss_sys_services/mss_sys_services.o
 .debug_abbrev  0x0000000000000000      0x4cb ./drivers/mss_sys_services/mss_sys_services.o
 .debug_loc     0x0000000000000000     0x1a3e ./drivers/mss_sys_services/mss_sys_services.o
 .debug_aranges
                0x0000000000000000      0x1b8 ./drivers/mss_sys_services/mss_sys_services.o
 .debug_ranges  0x0000000000000000      0x1a8 ./drivers/mss_sys_services/mss_sys_services.o
 .debug_line    0x0000000000000000     0x2495 ./drivers/mss_sys_services/mss_sys_services.o
 .debug_str     0x0000000000000000     0x186a ./drivers/mss_sys_services/mss_sys_services.o
 .comment       0x0000000000000000       0x67 ./drivers/mss_sys_services/mss_sys_services.o
 .debug_frame   0x0000000000000000      0x65c ./drivers/mss_sys_services/mss_sys_services.o
 .text          0x0000000000000000        0x0 ./drivers/mss_spi/mss_spi.o
 .data          0x0000000000000000        0x0 ./drivers/mss_spi/mss_spi.o
 .bss           0x0000000000000000        0x0 ./drivers/mss_spi/mss_spi.o
 .text.MSS_SPI_init
                0x0000000000000000       0xbc ./drivers/mss_spi/mss_spi.o
 .text.MSS_SPI_configure_slave_mode
                0x0000000000000000       0x9c ./drivers/mss_spi/mss_spi.o
 .text.MSS_SPI_configure_master_mode
                0x0000000000000000       0xd8 ./drivers/mss_spi/mss_spi.o
 .text.MSS_SPI_set_slave_select
                0x0000000000000000       0xb4 ./drivers/mss_spi/mss_spi.o
 .text.MSS_SPI_clear_slave_select
                0x0000000000000000       0x7c ./drivers/mss_spi/mss_spi.o
 .text.MSS_SPI_transfer_frame
                0x0000000000000000       0x68 ./drivers/mss_spi/mss_spi.o
 .text.MSS_SPI_transfer_block
                0x0000000000000000      0x130 ./drivers/mss_spi/mss_spi.o
 .text.MSS_SPI_set_frame_rx_handler
                0x0000000000000000       0xb0 ./drivers/mss_spi/mss_spi.o
 .text.MSS_SPI_set_slave_tx_frame
                0x0000000000000000       0xb8 ./drivers/mss_spi/mss_spi.o
 .text.MSS_SPI_set_slave_block_buffers
                0x0000000000000000      0x178 ./drivers/mss_spi/mss_spi.o
 .text.MSS_SPI_set_cmd_handler
                0x0000000000000000       0x88 ./drivers/mss_spi/mss_spi.o
 .text.MSS_SPI_set_cmd_response
                0x0000000000000000       0x14 ./drivers/mss_spi/mss_spi.o
 .text.MSS_SPI_enable
                0x0000000000000000       0x3c ./drivers/mss_spi/mss_spi.o
 .text.MSS_SPI_disable
                0x0000000000000000       0x3c ./drivers/mss_spi/mss_spi.o
 .text.MSS_SPI_set_transfer_byte_count
                0x0000000000000000       0x5c ./drivers/mss_spi/mss_spi.o
 .text.MSS_SPI_tx_done
                0x0000000000000000        0xa ./drivers/mss_spi/mss_spi.o
 .text          0x0000000000000000        0x0 ./drivers/mss_rtc/mss_rtc.o
 .data          0x0000000000000000        0x0 ./drivers/mss_rtc/mss_rtc.o
 .bss           0x0000000000000000        0x0 ./drivers/mss_rtc/mss_rtc.o
 .text.add_alarm_cfg_values
                0x0000000000000000       0x26 ./drivers/mss_rtc/mss_rtc.o
 .text.MSS_RTC_set_calendar_count
                0x0000000000000000      0x100 ./drivers/mss_rtc/mss_rtc.o
 .text.MSS_RTC_set_binary_count
                0x0000000000000000       0x38 ./drivers/mss_rtc/mss_rtc.o
 .text.MSS_RTC_get_calendar_count
                0x0000000000000000       0x3c ./drivers/mss_rtc/mss_rtc.o
 .text.MSS_RTC_get_binary_count
                0x0000000000000000       0x20 ./drivers/mss_rtc/mss_rtc.o
 .text.MSS_RTC_start
                0x0000000000000000        0xc ./drivers/mss_rtc/mss_rtc.o
 .text.MSS_RTC_stop
                0x0000000000000000       0x18 ./drivers/mss_rtc/mss_rtc.o
 .text.set_rtc_mode
                0x0000000000000000       0x30 ./drivers/mss_rtc/mss_rtc.o
 .text.MSS_RTC_set_calendar_count_alarm
                0x0000000000000000       0x98 ./drivers/mss_rtc/mss_rtc.o
 .text.MSS_RTC_set_binary_count_alarm
                0x0000000000000000       0x3c ./drivers/mss_rtc/mss_rtc.o
 .text.MSS_RTC_reset_counter
                0x0000000000000000       0x18 ./drivers/mss_rtc/mss_rtc.o
 .text.MSS_RTC_get_update_flag
                0x0000000000000000       0x10 ./drivers/mss_rtc/mss_rtc.o
 .text.MSS_RTC_clear_update_flag
                0x0000000000000000       0x10 ./drivers/mss_rtc/mss_rtc.o
 .text.MSS_RTC_enable_irq
                0x0000000000000000        0xc ./drivers/mss_rtc/mss_rtc.o
 .text.MSS_RTC_disable_irq
                0x0000000000000000       0x10 ./drivers/mss_rtc/mss_rtc.o
 .text.MSS_RTC_clear_irq
                0x0000000000000000       0x1c ./drivers/mss_rtc/mss_rtc.o
 .text.MSS_RTC_init
                0x0000000000000000       0x6c ./drivers/mss_rtc/mss_rtc.o
 .debug_info    0x0000000000000000     0x1d86 ./drivers/mss_rtc/mss_rtc.o
 .debug_abbrev  0x0000000000000000      0x47c ./drivers/mss_rtc/mss_rtc.o
 .debug_loc     0x0000000000000000      0x546 ./drivers/mss_rtc/mss_rtc.o
 .debug_aranges
                0x0000000000000000       0xa0 ./drivers/mss_rtc/mss_rtc.o
 .debug_ranges  0x0000000000000000       0xf0 ./drivers/mss_rtc/mss_rtc.o
 .debug_line    0x0000000000000000      0xb99 ./drivers/mss_rtc/mss_rtc.o
 .debug_str     0x0000000000000000     0x1756 ./drivers/mss_rtc/mss_rtc.o
 .comment       0x0000000000000000       0x67 ./drivers/mss_rtc/mss_rtc.o
 .debug_frame   0x0000000000000000      0x170 ./drivers/mss_rtc/mss_rtc.o
 .text          0x0000000000000000        0x0 ./drivers/mss_nvm/mss_nvm.o
 .data          0x0000000000000000        0x0 ./drivers/mss_nvm/mss_nvm.o
 .bss           0x0000000000000000        0x0 ./drivers/mss_nvm/mss_nvm.o
 .text.get_error_code
                0x0000000000000000       0x2a ./drivers/mss_nvm/mss_nvm.o
 .text.request_nvm_access
                0x0000000000000000       0x50 ./drivers/mss_nvm/mss_nvm.o
 .text.release_ctrl_access
                0x0000000000000000       0x44 ./drivers/mss_nvm/mss_nvm.o
 .text.get_ctrl_access
                0x0000000000000000       0x3e ./drivers/mss_nvm/mss_nvm.o
 .text.wait_nvm_ready
                0x0000000000000000       0x30 ./drivers/mss_nvm/mss_nvm.o
 .text.check_protection_reserved_nvm
                0x0000000000000000      0x3b4 ./drivers/mss_nvm/mss_nvm.o
 .text.NVM_write
                0x0000000000000000      0x2bc ./drivers/mss_nvm/mss_nvm.o
 .text.NVM_unlock
                0x0000000000000000      0x12c ./drivers/mss_nvm/mss_nvm.o
 .text.NVM_read_page_write_count
                0x0000000000000000       0xa8 ./drivers/mss_nvm/mss_nvm.o
 .bss.g_do_not_lock_page
                0x0000000000000000        0x1 ./drivers/mss_nvm/mss_nvm.o
 .bss.g_envm_ctrl_locks
                0x0000000000000000        0x1 ./drivers/mss_nvm/mss_nvm.o
 .rodata.g_nvm  0x0000000000000000        0x8 ./drivers/mss_nvm/mss_nvm.o
 .rodata.g_nvm32
                0x0000000000000000        0x8 ./drivers/mss_nvm/mss_nvm.o
 .debug_info    0x0000000000000000     0x1880 ./drivers/mss_nvm/mss_nvm.o
 .debug_abbrev  0x0000000000000000      0x33f ./drivers/mss_nvm/mss_nvm.o
 .debug_loc     0x0000000000000000     0x1c3f ./drivers/mss_nvm/mss_nvm.o
 .debug_aranges
                0x0000000000000000       0x60 ./drivers/mss_nvm/mss_nvm.o
 .debug_ranges  0x0000000000000000      0x208 ./drivers/mss_nvm/mss_nvm.o
 .debug_line    0x0000000000000000      0xeee ./drivers/mss_nvm/mss_nvm.o
 .debug_str     0x0000000000000000      0xe69 ./drivers/mss_nvm/mss_nvm.o
 .comment       0x0000000000000000       0x67 ./drivers/mss_nvm/mss_nvm.o
 .debug_frame   0x0000000000000000      0x124 ./drivers/mss_nvm/mss_nvm.o
 .text          0x0000000000000000        0x0 ./drivers/mss_gpio/mss_gpio.o
 .data          0x0000000000000000        0x0 ./drivers/mss_gpio/mss_gpio.o
 .bss           0x0000000000000000        0x0 ./drivers/mss_gpio/mss_gpio.o
 .text.MSS_GPIO_init
                0x0000000000000000       0x60 ./drivers/mss_gpio/mss_gpio.o
 .text.MSS_GPIO_config
                0x0000000000000000       0x18 ./drivers/mss_gpio/mss_gpio.o
 .text.MSS_GPIO_set_output
                0x0000000000000000       0x2c ./drivers/mss_gpio/mss_gpio.o
 .text.MSS_GPIO_drive_inout
                0x0000000000000000       0x74 ./drivers/mss_gpio/mss_gpio.o
 .text.MSS_GPIO_enable_irq
                0x0000000000000000       0x3c ./drivers/mss_gpio/mss_gpio.o
 .text.MSS_GPIO_disable_irq
                0x0000000000000000       0x1c ./drivers/mss_gpio/mss_gpio.o
 .text.MSS_GPIO_clear_irq
                0x0000000000000000       0x20 ./drivers/mss_gpio/mss_gpio.o
 .rodata.g_config_reg_lut
                0x0000000000000000       0x80 ./drivers/mss_gpio/mss_gpio.o
 .rodata.g_gpio_irqn_lut
                0x0000000000000000       0x20 ./drivers/mss_gpio/mss_gpio.o
 .debug_info    0x0000000000000000     0x115a ./drivers/mss_gpio/mss_gpio.o
 .debug_abbrev  0x0000000000000000      0x246 ./drivers/mss_gpio/mss_gpio.o
 .debug_loc     0x0000000000000000      0x2cf ./drivers/mss_gpio/mss_gpio.o
 .debug_aranges
                0x0000000000000000       0x50 ./drivers/mss_gpio/mss_gpio.o
 .debug_ranges  0x0000000000000000       0x58 ./drivers/mss_gpio/mss_gpio.o
 .debug_line    0x0000000000000000      0x553 ./drivers/mss_gpio/mss_gpio.o
 .debug_str     0x0000000000000000     0x1324 ./drivers/mss_gpio/mss_gpio.o
 .comment       0x0000000000000000       0x67 ./drivers/mss_gpio/mss_gpio.o
 .debug_frame   0x0000000000000000       0x98 ./drivers/mss_gpio/mss_gpio.o
 .text          0x0000000000000000        0x0 ./drivers/mss_ethernet_mac/m88e1340_phy.o
 .data          0x0000000000000000        0x0 ./drivers/mss_ethernet_mac/m88e1340_phy.o
 .bss           0x0000000000000000        0x0 ./drivers/mss_ethernet_mac/m88e1340_phy.o
 .text          0x0000000000000000        0x0 ./drivers/mss_ethernet_mac/mss_ethernet_mac.o
 .data          0x0000000000000000        0x0 ./drivers/mss_ethernet_mac/mss_ethernet_mac.o
 .bss           0x0000000000000000        0x0 ./drivers/mss_ethernet_mac/mss_ethernet_mac.o
 .text          0x0000000000000000        0x0 ./WebServer/httpserver-netconn.o
 .data          0x0000000000000000        0x0 ./WebServer/httpserver-netconn.o
 .bss           0x0000000000000000        0x0 ./WebServer/httpserver-netconn.o
 .rodata.http_server_netconn_init.str1.4
                0x0000000000000000       0x14 ./WebServer/httpserver-netconn.o
 .text.http_server_netconn_init
                0x0000000000000000       0x24 ./WebServer/httpserver-netconn.o
 .text          0x0000000000000000        0x0 ./WebServer/mscc_logo.o
 .data          0x0000000000000000        0x0 ./WebServer/mscc_logo.o
 .bss           0x0000000000000000        0x0 ./WebServer/mscc_logo.o
 .text          0x0000000000000000        0x0 ./FreeRTOS/portable/MemMang/heap_2.o
 .data          0x0000000000000000        0x0 ./FreeRTOS/portable/MemMang/heap_2.o
 .bss           0x0000000000000000        0x0 ./FreeRTOS/portable/MemMang/heap_2.o
 .text.vPortInitialiseBlocks
                0x0000000000000000        0x2 ./FreeRTOS/portable/MemMang/heap_2.o
 .text          0x0000000000000000        0x0 ./FreeRTOS/portable/GCC/ARM_CM3/port.o
 .data          0x0000000000000000        0x0 ./FreeRTOS/portable/GCC/ARM_CM3/port.o
 .bss           0x0000000000000000        0x0 ./FreeRTOS/portable/GCC/ARM_CM3/port.o
 .text.vPortEndScheduler
                0x0000000000000000        0x2 ./FreeRTOS/portable/GCC/ARM_CM3/port.o
 .rodata.ulKernelPriority
                0x0000000000000000        0x4 ./FreeRTOS/portable/GCC/ARM_CM3/port.o
 .text          0x0000000000000000        0x0 ./FreeRTOS/croutine.o
 .data          0x0000000000000000        0x0 ./FreeRTOS/croutine.o
 .bss           0x0000000000000000        0x0 ./FreeRTOS/croutine.o
 .text.xCoRoutineCreate
                0x0000000000000000       0xd0 ./FreeRTOS/croutine.o
 .text.vCoRoutineAddToDelayedList
                0x0000000000000000       0x4c ./FreeRTOS/croutine.o
 .text.vCoRoutineSchedule
                0x0000000000000000      0x1ac ./FreeRTOS/croutine.o
 .text.xCoRoutineRemoveFromEventList
                0x0000000000000000       0x34 ./FreeRTOS/croutine.o
 .bss.pxCurrentCoRoutine
                0x0000000000000000        0x4 ./FreeRTOS/croutine.o
 .bss.pxDelayedCoRoutineList
                0x0000000000000000        0x4 ./FreeRTOS/croutine.o
 .bss.pxOverflowDelayedCoRoutineList
                0x0000000000000000        0x4 ./FreeRTOS/croutine.o
 .bss.pxReadyCoRoutineLists
                0x0000000000000000       0x28 ./FreeRTOS/croutine.o
 .bss.uxTopCoRoutineReadyPriority
                0x0000000000000000        0x4 ./FreeRTOS/croutine.o
 .bss.xCoRoutineTickCount
                0x0000000000000000        0x4 ./FreeRTOS/croutine.o
 .bss.xDelayedCoRoutineList1
                0x0000000000000000       0x14 ./FreeRTOS/croutine.o
 .bss.xDelayedCoRoutineList2
                0x0000000000000000       0x14 ./FreeRTOS/croutine.o
 .bss.xLastTickCount
                0x0000000000000000        0x4 ./FreeRTOS/croutine.o
 .bss.xPassedTicks
                0x0000000000000000        0x4 ./FreeRTOS/croutine.o
 .bss.xPendingReadyCoRoutineList
                0x0000000000000000       0x14 ./FreeRTOS/croutine.o
 .debug_info    0x0000000000000000      0x758 ./FreeRTOS/croutine.o
 .debug_abbrev  0x0000000000000000      0x2a3 ./FreeRTOS/croutine.o
 .debug_loc     0x0000000000000000      0x2bc ./FreeRTOS/croutine.o
 .debug_aranges
                0x0000000000000000       0x38 ./FreeRTOS/croutine.o
 .debug_ranges  0x0000000000000000       0x70 ./FreeRTOS/croutine.o
 .debug_line    0x0000000000000000      0x589 ./FreeRTOS/croutine.o
 .debug_str     0x0000000000000000      0x5ab ./FreeRTOS/croutine.o
 .comment       0x0000000000000000       0x67 ./FreeRTOS/croutine.o
 .debug_frame   0x0000000000000000       0x98 ./FreeRTOS/croutine.o
 .text          0x0000000000000000        0x0 ./FreeRTOS/list.o
 .data          0x0000000000000000        0x0 ./FreeRTOS/list.o
 .bss           0x0000000000000000        0x0 ./FreeRTOS/list.o
 .text          0x0000000000000000        0x0 ./FreeRTOS/queue.o
 .data          0x0000000000000000        0x0 ./FreeRTOS/queue.o
 .bss           0x0000000000000000        0x0 ./FreeRTOS/queue.o
 .text.xQueueCreateMutex
                0x0000000000000000       0x4e ./FreeRTOS/queue.o
 .text.xQueueGiveMutexRecursive
                0x0000000000000000       0x28 ./FreeRTOS/queue.o
 .text.xQueueTakeMutexRecursive
                0x0000000000000000       0x3e ./FreeRTOS/queue.o
 .text.xQueueReceiveFromISR
                0x0000000000000000       0x82 ./FreeRTOS/queue.o
 .text.uxQueueMessagesWaitingFromISR
                0x0000000000000000       0x10 ./FreeRTOS/queue.o
 .text.xQueueIsQueueEmptyFromISR
                0x0000000000000000       0x16 ./FreeRTOS/queue.o
 .text.xQueueIsQueueFullFromISR
                0x0000000000000000       0x1a ./FreeRTOS/queue.o
 .text          0x0000000000000000        0x0 ./FreeRTOS/tasks.o
 .data          0x0000000000000000        0x0 ./FreeRTOS/tasks.o
 .bss           0x0000000000000000        0x0 ./FreeRTOS/tasks.o
 .rodata.prvListTaskWithinSingleList.str1.4
                0x0000000000000000       0x12 ./FreeRTOS/tasks.o
 .text.prvListTaskWithinSingleList
                0x0000000000000000       0x90 ./FreeRTOS/tasks.o
 .rodata.prvGenerateRunTimeStatsForTasksInList.str1.4
                0x0000000000000000       0x2f ./FreeRTOS/tasks.o
 .text.prvGenerateRunTimeStatsForTasksInList
                0x0000000000000000       0xa4 ./FreeRTOS/tasks.o
 .text.vTaskDelete
                0x0000000000000000       0x70 ./FreeRTOS/tasks.o
 .text.uxTaskPriorityGet
                0x0000000000000000       0x20 ./FreeRTOS/tasks.o
 .text.vTaskPrioritySet
                0x0000000000000000       0xa4 ./FreeRTOS/tasks.o
 .text.xTaskIsTaskSuspended
                0x0000000000000000       0x34 ./FreeRTOS/tasks.o
 .text.vTaskResume
                0x0000000000000000       0x70 ./FreeRTOS/tasks.o
 .text.xTaskResumeFromISR
                0x0000000000000000       0x80 ./FreeRTOS/tasks.o
 .text.vTaskEndScheduler
                0x0000000000000000       0x1c ./FreeRTOS/tasks.o
 .text.xTaskGetTickCountFromISR
                0x0000000000000000       0x1c ./FreeRTOS/tasks.o
 .text.uxTaskGetNumberOfTasks
                0x0000000000000000        0xc ./FreeRTOS/tasks.o
 .text.vTaskStartTrace
                0x0000000000000000       0x50 ./FreeRTOS/tasks.o
 .text.ulTaskEndTrace
                0x0000000000000000       0x28 ./FreeRTOS/tasks.o
 .text.vTaskDelayUntil
                0x0000000000000000       0x80 ./FreeRTOS/tasks.o
 .rodata.vTaskList.str1.4
                0x0000000000000000        0x3 ./FreeRTOS/tasks.o
 .text.vTaskList
                0x0000000000000000       0xc0 ./FreeRTOS/tasks.o
 .text.vTaskGetRunTimeStats
                0x0000000000000000       0xcc ./FreeRTOS/tasks.o
 .text.vTaskCleanUpResources
                0x0000000000000000      0x110 ./FreeRTOS/tasks.o
 .text.vTaskSuspend
                0x0000000000000000       0xb0 ./FreeRTOS/tasks.o
 .bss.pcStatsString
                0x0000000000000000       0x32 ./FreeRTOS/tasks.o
 .bss.pcStatusString
                0x0000000000000000       0x32 ./FreeRTOS/tasks.o
 .bss.pcTraceBufferStart
                0x0000000000000000        0x4 ./FreeRTOS/tasks.o
 .text          0x0000000000000000        0x0 ./FreeRTOS/timers.o
 .data          0x0000000000000000        0x0 ./FreeRTOS/timers.o
 .bss           0x0000000000000000        0x0 ./FreeRTOS/timers.o
 .text.xTimerCreate
                0x0000000000000000       0x40 ./FreeRTOS/timers.o
 .text.xTimerIsTimerActive
                0x0000000000000000       0x18 ./FreeRTOS/timers.o
 .text.pvTimerGetTimerID
                0x0000000000000000        0x4 ./FreeRTOS/timers.o
 .text          0x0000000000000000        0x0 ./CMSIS/startup_gcc/newlib_stubs.o
 .data          0x0000000000000000        0x0 ./CMSIS/startup_gcc/newlib_stubs.o
 .bss           0x0000000000000000        0x0 ./CMSIS/startup_gcc/newlib_stubs.o
 .text._execve  0x0000000000000000       0x10 ./CMSIS/startup_gcc/newlib_stubs.o
 .text._fork    0x0000000000000000       0x10 ./CMSIS/startup_gcc/newlib_stubs.o
 .text._link    0x0000000000000000       0x10 ./CMSIS/startup_gcc/newlib_stubs.o
 .text._open    0x0000000000000000        0x6 ./CMSIS/startup_gcc/newlib_stubs.o
 .text._stat    0x0000000000000000        0xa ./CMSIS/startup_gcc/newlib_stubs.o
 .text._times   0x0000000000000000        0x6 ./CMSIS/startup_gcc/newlib_stubs.o
 .text._unlink  0x0000000000000000       0x10 ./CMSIS/startup_gcc/newlib_stubs.o
 .text._wait    0x0000000000000000       0x10 ./CMSIS/startup_gcc/newlib_stubs.o
 .bss.__env     0x0000000000000000        0x4 ./CMSIS/startup_gcc/newlib_stubs.o
 .data.environ  0x0000000000000000        0x4 ./CMSIS/startup_gcc/newlib_stubs.o
 .text          0x0000000000000000        0x0 ./CMSIS/startup_gcc/startup_m2sxxx.o
 .data          0x0000000000000000        0x0 ./CMSIS/startup_gcc/startup_m2sxxx.o
 .bss           0x0000000000000000        0x0 ./CMSIS/startup_gcc/startup_m2sxxx.o
 .text          0x0000000000000000        0x0 ./CMSIS/system_m2sxxx.o
 .data          0x0000000000000000        0x0 ./CMSIS/system_m2sxxx.o
 .bss           0x0000000000000000        0x0 ./CMSIS/system_m2sxxx.o
 .text          0x0000000000000000        0x0 ./.metadata/.plugins/org.eclipse.cdt.make.core/specs.o
 .data          0x0000000000000000        0x0 ./.metadata/.plugins/org.eclipse.cdt.make.core/specs.o
 .bss           0x0000000000000000        0x0 ./.metadata/.plugins/org.eclipse.cdt.make.core/specs.o
 .debug_line    0x0000000000000000        0x0 ./.metadata/.plugins/org.eclipse.cdt.make.core/specs.o
 .debug_str     0x0000000000000000      0x170 ./.metadata/.plugins/org.eclipse.cdt.make.core/specs.o
 .comment       0x0000000000000000       0x67 ./.metadata/.plugins/org.eclipse.cdt.make.core/specs.o
 .text          0x0000000000000000        0x0 ./main.o
 .data          0x0000000000000000        0x0 ./main.o
 .bss           0x0000000000000000        0x0 ./main.o
 .bss.xPTPdOutQueue
                0x0000000000000000        0x4 ./main.o
 .text          0x0000000000000000        0x0 ./mscc_post_hw_cfg_init.o
 .data          0x0000000000000000        0x0 ./mscc_post_hw_cfg_init.o
 .bss           0x0000000000000000        0x0 ./mscc_post_hw_cfg_init.o
 .text          0x0000000000000000        0x0 ./sys_cfg.o
 .data          0x0000000000000000        0x0 ./sys_cfg.o
 .bss           0x0000000000000000        0x0 ./sys_cfg.o
 .text.get_user_eth_speed_choice
                0x0000000000000000       0x50 ./sys_cfg.o
 .text          0x0000000000000000        0x0 ./uart_task.o
 .data          0x0000000000000000        0x0 ./uart_task.o
 .bss           0x0000000000000000        0x0 ./uart_task.o
 .data.address_filter_broad
                0x0000000000000000        0x6 ./uart_task.o
 .data.address_filter_hash
                0x0000000000000000       0x18 ./uart_task.o
 .text          0x0000000000000000        0x0 /home/jerryneedell/Microchip/SoftConsole-v6.4/arm-none-eabi-gcc/bin/../lib/gcc/arm-none-eabi/9.2.1/../../../../arm-none-eabi/lib/thumb/v7-m/nofp/libg_nano.a(lib_a-assert.o)
 .data          0x0000000000000000        0x0 /home/jerryneedell/Microchip/SoftConsole-v6.4/arm-none-eabi-gcc/bin/../lib/gcc/arm-none-eabi/9.2.1/../../../../arm-none-eabi/lib/thumb/v7-m/nofp/libg_nano.a(lib_a-assert.o)
 .bss           0x0000000000000000        0x0 /home/jerryneedell/Microchip/SoftConsole-v6.4/arm-none-eabi-gcc/bin/../lib/gcc/arm-none-eabi/9.2.1/../../../../arm-none-eabi/lib/thumb/v7-m/nofp/libg_nano.a(lib_a-assert.o)
 .text.__assert
                0x0000000000000000        0xa /home/jerryneedell/Microchip/SoftConsole-v6.4/arm-none-eabi-gcc/bin/../lib/gcc/arm-none-eabi/9.2.1/../../../../arm-none-eabi/lib/thumb/v7-m/nofp/libg_nano.a(lib_a-assert.o)
 .text          0x0000000000000000        0x0 /home/jerryneedell/Microchip/SoftConsole-v6.4/arm-none-eabi-gcc/bin/../lib/gcc/arm-none-eabi/9.2.1/../../../../arm-none-eabi/lib/thumb/v7-m/nofp/libg_nano.a(lib_a-errno.o)
 .data          0x0000000000000000        0x0 /home/jerryneedell/Microchip/SoftConsole-v6.4/arm-none-eabi-gcc/bin/../lib/gcc/arm-none-eabi/9.2.1/../../../../arm-none-eabi/lib/thumb/v7-m/nofp/libg_nano.a(lib_a-errno.o)
 .bss           0x0000000000000000        0x0 /home/jerryneedell/Microchip/SoftConsole-v6.4/arm-none-eabi-gcc/bin/../lib/gcc/arm-none-eabi/9.2.1/../../../../arm-none-eabi/lib/thumb/v7-m/nofp/libg_nano.a(lib_a-errno.o)
 .text          0x0000000000000000        0x0 /home/jerryneedell/Microchip/SoftConsole-v6.4/arm-none-eabi-gcc/bin/../lib/gcc/arm-none-eabi/9.2.1/../../../../arm-none-eabi/lib/thumb/v7-m/nofp/libg_nano.a(lib_a-exit.o)
 .data          0x0000000000000000        0x0 /home/jerryneedell/Microchip/SoftConsole-v6.4/arm-none-eabi-gcc/bin/../lib/gcc/arm-none-eabi/9.2.1/../../../../arm-none-eabi/lib/thumb/v7-m/nofp/libg_nano.a(lib_a-exit.o)
 .bss           0x0000000000000000        0x0 /home/jerryneedell/Microchip/SoftConsole-v6.4/arm-none-eabi-gcc/bin/../lib/gcc/arm-none-eabi/9.2.1/../../../../arm-none-eabi/lib/thumb/v7-m/nofp/libg_nano.a(lib_a-exit.o)
 .text.exit     0x0000000000000000       0x28 /home/jerryneedell/Microchip/SoftConsole-v6.4/arm-none-eabi-gcc/bin/../lib/gcc/arm-none-eabi/9.2.1/../../../../arm-none-eabi/lib/thumb/v7-m/nofp/libg_nano.a(lib_a-exit.o)
 .debug_frame   0x0000000000000000       0x28 /home/jerryneedell/Microchip/SoftConsole-v6.4/arm-none-eabi-gcc/bin/../lib/gcc/arm-none-eabi/9.2.1/../../../../arm-none-eabi/lib/thumb/v7-m/nofp/libg_nano.a(lib_a-exit.o)
 .text          0x0000000000000000        0x0 /home/jerryneedell/Microchip/SoftConsole-v6.4/arm-none-eabi-gcc/bin/../lib/gcc/arm-none-eabi/9.2.1/../../../../arm-none-eabi/lib/thumb/v7-m/nofp/libg_nano.a(lib_a-fprintf.o)
 .data          0x0000000000000000        0x0 /home/jerryneedell/Microchip/SoftConsole-v6.4/arm-none-eabi-gcc/bin/../lib/gcc/arm-none-eabi/9.2.1/../../../../arm-none-eabi/lib/thumb/v7-m/nofp/libg_nano.a(lib_a-fprintf.o)
 .bss           0x0000000000000000        0x0 /home/jerryneedell/Microchip/SoftConsole-v6.4/arm-none-eabi-gcc/bin/../lib/gcc/arm-none-eabi/9.2.1/../../../../arm-none-eabi/lib/thumb/v7-m/nofp/libg_nano.a(lib_a-fprintf.o)
 .text._fprintf_r
                0x0000000000000000       0x1a /home/jerryneedell/Microchip/SoftConsole-v6.4/arm-none-eabi-gcc/bin/../lib/gcc/arm-none-eabi/9.2.1/../../../../arm-none-eabi/lib/thumb/v7-m/nofp/libg_nano.a(lib_a-fprintf.o)
 .text          0x0000000000000000        0x0 /home/jerryneedell/Microchip/SoftConsole-v6.4/arm-none-eabi-gcc/bin/../lib/gcc/arm-none-eabi/9.2.1/../../../../arm-none-eabi/lib/thumb/v7-m/nofp/libg_nano.a(lib_a-impure.o)
 .data          0x0000000000000000        0x0 /home/jerryneedell/Microchip/SoftConsole-v6.4/arm-none-eabi-gcc/bin/../lib/gcc/arm-none-eabi/9.2.1/../../../../arm-none-eabi/lib/thumb/v7-m/nofp/libg_nano.a(lib_a-impure.o)
 .bss           0x0000000000000000        0x0 /home/jerryneedell/Microchip/SoftConsole-v6.4/arm-none-eabi-gcc/bin/../lib/gcc/arm-none-eabi/9.2.1/../../../../arm-none-eabi/lib/thumb/v7-m/nofp/libg_nano.a(lib_a-impure.o)
 .text          0x0000000000000000        0x0 /home/jerryneedell/Microchip/SoftConsole-v6.4/arm-none-eabi-gcc/bin/../lib/gcc/arm-none-eabi/9.2.1/../../../../arm-none-eabi/lib/thumb/v7-m/nofp/libg_nano.a(lib_a-init.o)
 .data          0x0000000000000000        0x0 /home/jerryneedell/Microchip/SoftConsole-v6.4/arm-none-eabi-gcc/bin/../lib/gcc/arm-none-eabi/9.2.1/../../../../arm-none-eabi/lib/thumb/v7-m/nofp/libg_nano.a(lib_a-init.o)
 .bss           0x0000000000000000        0x0 /home/jerryneedell/Microchip/SoftConsole-v6.4/arm-none-eabi-gcc/bin/../lib/gcc/arm-none-eabi/9.2.1/../../../../arm-none-eabi/lib/thumb/v7-m/nofp/libg_nano.a(lib_a-init.o)
 .text          0x0000000000000000        0x0 /home/jerryneedell/Microchip/SoftConsole-v6.4/arm-none-eabi-gcc/bin/../lib/gcc/arm-none-eabi/9.2.1/../../../../arm-none-eabi/lib/thumb/v7-m/nofp/libg_nano.a(lib_a-memcmp.o)
 .data          0x0000000000000000        0x0 /home/jerryneedell/Microchip/SoftConsole-v6.4/arm-none-eabi-gcc/bin/../lib/gcc/arm-none-eabi/9.2.1/../../../../arm-none-eabi/lib/thumb/v7-m/nofp/libg_nano.a(lib_a-memcmp.o)
 .bss           0x0000000000000000        0x0 /home/jerryneedell/Microchip/SoftConsole-v6.4/arm-none-eabi-gcc/bin/../lib/gcc/arm-none-eabi/9.2.1/../../../../arm-none-eabi/lib/thumb/v7-m/nofp/libg_nano.a(lib_a-memcmp.o)
 .text          0x0000000000000000        0x0 /home/jerryneedell/Microchip/SoftConsole-v6.4/arm-none-eabi-gcc/bin/../lib/gcc/arm-none-eabi/9.2.1/../../../../arm-none-eabi/lib/thumb/v7-m/nofp/libg_nano.a(lib_a-memcpy-stub.o)
 .data          0x0000000000000000        0x0 /home/jerryneedell/Microchip/SoftConsole-v6.4/arm-none-eabi-gcc/bin/../lib/gcc/arm-none-eabi/9.2.1/../../../../arm-none-eabi/lib/thumb/v7-m/nofp/libg_nano.a(lib_a-memcpy-stub.o)
 .bss           0x0000000000000000        0x0 /home/jerryneedell/Microchip/SoftConsole-v6.4/arm-none-eabi-gcc/bin/../lib/gcc/arm-none-eabi/9.2.1/../../../../arm-none-eabi/lib/thumb/v7-m/nofp/libg_nano.a(lib_a-memcpy-stub.o)
 .text          0x0000000000000000        0x0 /home/jerryneedell/Microchip/SoftConsole-v6.4/arm-none-eabi-gcc/bin/../lib/gcc/arm-none-eabi/9.2.1/../../../../arm-none-eabi/lib/thumb/v7-m/nofp/libg_nano.a(lib_a-memset.o)
 .data          0x0000000000000000        0x0 /home/jerryneedell/Microchip/SoftConsole-v6.4/arm-none-eabi-gcc/bin/../lib/gcc/arm-none-eabi/9.2.1/../../../../arm-none-eabi/lib/thumb/v7-m/nofp/libg_nano.a(lib_a-memset.o)
 .bss           0x0000000000000000        0x0 /home/jerryneedell/Microchip/SoftConsole-v6.4/arm-none-eabi-gcc/bin/../lib/gcc/arm-none-eabi/9.2.1/../../../../arm-none-eabi/lib/thumb/v7-m/nofp/libg_nano.a(lib_a-memset.o)
 .text          0x0000000000000000        0x0 /home/jerryneedell/Microchip/SoftConsole-v6.4/arm-none-eabi-gcc/bin/../lib/gcc/arm-none-eabi/9.2.1/../../../../arm-none-eabi/lib/thumb/v7-m/nofp/libg_nano.a(lib_a-nano-vfprintf.o)
 .data          0x0000000000000000        0x0 /home/jerryneedell/Microchip/SoftConsole-v6.4/arm-none-eabi-gcc/bin/../lib/gcc/arm-none-eabi/9.2.1/../../../../arm-none-eabi/lib/thumb/v7-m/nofp/libg_nano.a(lib_a-nano-vfprintf.o)
 .bss           0x0000000000000000        0x0 /home/jerryneedell/Microchip/SoftConsole-v6.4/arm-none-eabi-gcc/bin/../lib/gcc/arm-none-eabi/9.2.1/../../../../arm-none-eabi/lib/thumb/v7-m/nofp/libg_nano.a(lib_a-nano-vfprintf.o)
 .text.__sprint_r
                0x0000000000000000       0x1a /home/jerryneedell/Microchip/SoftConsole-v6.4/arm-none-eabi-gcc/bin/../lib/gcc/arm-none-eabi/9.2.1/../../../../arm-none-eabi/lib/thumb/v7-m/nofp/libg_nano.a(lib_a-nano-vfprintf.o)
 .text.vfprintf
                0x0000000000000000       0x14 /home/jerryneedell/Microchip/SoftConsole-v6.4/arm-none-eabi-gcc/bin/../lib/gcc/arm-none-eabi/9.2.1/../../../../arm-none-eabi/lib/thumb/v7-m/nofp/libg_nano.a(lib_a-nano-vfprintf.o)
 .text          0x0000000000000000        0x0 /home/jerryneedell/Microchip/SoftConsole-v6.4/arm-none-eabi-gcc/bin/../lib/gcc/arm-none-eabi/9.2.1/../../../../arm-none-eabi/lib/thumb/v7-m/nofp/libg_nano.a(lib_a-nano-vfprintf_i.o)
 .data          0x0000000000000000        0x0 /home/jerryneedell/Microchip/SoftConsole-v6.4/arm-none-eabi-gcc/bin/../lib/gcc/arm-none-eabi/9.2.1/../../../../arm-none-eabi/lib/thumb/v7-m/nofp/libg_nano.a(lib_a-nano-vfprintf_i.o)
 .bss           0x0000000000000000        0x0 /home/jerryneedell/Microchip/SoftConsole-v6.4/arm-none-eabi-gcc/bin/../lib/gcc/arm-none-eabi/9.2.1/../../../../arm-none-eabi/lib/thumb/v7-m/nofp/libg_nano.a(lib_a-nano-vfprintf_i.o)
 .text          0x0000000000000000        0x0 /home/jerryneedell/Microchip/SoftConsole-v6.4/arm-none-eabi-gcc/bin/../lib/gcc/arm-none-eabi/9.2.1/../../../../arm-none-eabi/lib/thumb/v7-m/nofp/libg_nano.a(lib_a-snprintf.o)
 .data          0x0000000000000000        0x0 /home/jerryneedell/Microchip/SoftConsole-v6.4/arm-none-eabi-gcc/bin/../lib/gcc/arm-none-eabi/9.2.1/../../../../arm-none-eabi/lib/thumb/v7-m/nofp/libg_nano.a(lib_a-snprintf.o)
 .bss           0x0000000000000000        0x0 /home/jerryneedell/Microchip/SoftConsole-v6.4/arm-none-eabi-gcc/bin/../lib/gcc/arm-none-eabi/9.2.1/../../../../arm-none-eabi/lib/thumb/v7-m/nofp/libg_nano.a(lib_a-snprintf.o)
 .text._snprintf_r
                0x0000000000000000       0x5e /home/jerryneedell/Microchip/SoftConsole-v6.4/arm-none-eabi-gcc/bin/../lib/gcc/arm-none-eabi/9.2.1/../../../../arm-none-eabi/lib/thumb/v7-m/nofp/libg_nano.a(lib_a-snprintf.o)
 .text          0x0000000000000000        0x0 /home/jerryneedell/Microchip/SoftConsole-v6.4/arm-none-eabi-gcc/bin/../lib/gcc/arm-none-eabi/9.2.1/../../../../arm-none-eabi/lib/thumb/v7-m/nofp/libg_nano.a(lib_a-sprintf.o)
 .data          0x0000000000000000        0x0 /home/jerryneedell/Microchip/SoftConsole-v6.4/arm-none-eabi-gcc/bin/../lib/gcc/arm-none-eabi/9.2.1/../../../../arm-none-eabi/lib/thumb/v7-m/nofp/libg_nano.a(lib_a-sprintf.o)
 .bss           0x0000000000000000        0x0 /home/jerryneedell/Microchip/SoftConsole-v6.4/arm-none-eabi-gcc/bin/../lib/gcc/arm-none-eabi/9.2.1/../../../../arm-none-eabi/lib/thumb/v7-m/nofp/libg_nano.a(lib_a-sprintf.o)
 .text._sprintf_r
                0x0000000000000000       0x38 /home/jerryneedell/Microchip/SoftConsole-v6.4/arm-none-eabi-gcc/bin/../lib/gcc/arm-none-eabi/9.2.1/../../../../arm-none-eabi/lib/thumb/v7-m/nofp/libg_nano.a(lib_a-sprintf.o)
 .text.sprintf  0x0000000000000000       0x40 /home/jerryneedell/Microchip/SoftConsole-v6.4/arm-none-eabi-gcc/bin/../lib/gcc/arm-none-eabi/9.2.1/../../../../arm-none-eabi/lib/thumb/v7-m/nofp/libg_nano.a(lib_a-sprintf.o)
 .debug_frame   0x0000000000000000       0x6c /home/jerryneedell/Microchip/SoftConsole-v6.4/arm-none-eabi-gcc/bin/../lib/gcc/arm-none-eabi/9.2.1/../../../../arm-none-eabi/lib/thumb/v7-m/nofp/libg_nano.a(lib_a-sprintf.o)
 .text          0x0000000000000000        0x0 /home/jerryneedell/Microchip/SoftConsole-v6.4/arm-none-eabi-gcc/bin/../lib/gcc/arm-none-eabi/9.2.1/../../../../arm-none-eabi/lib/thumb/v7-m/nofp/libg_nano.a(lib_a-strcat.o)
 .data          0x0000000000000000        0x0 /home/jerryneedell/Microchip/SoftConsole-v6.4/arm-none-eabi-gcc/bin/../lib/gcc/arm-none-eabi/9.2.1/../../../../arm-none-eabi/lib/thumb/v7-m/nofp/libg_nano.a(lib_a-strcat.o)
 .bss           0x0000000000000000        0x0 /home/jerryneedell/Microchip/SoftConsole-v6.4/arm-none-eabi-gcc/bin/../lib/gcc/arm-none-eabi/9.2.1/../../../../arm-none-eabi/lib/thumb/v7-m/nofp/libg_nano.a(lib_a-strcat.o)
 .text.strcat   0x0000000000000000       0x1e /home/jerryneedell/Microchip/SoftConsole-v6.4/arm-none-eabi-gcc/bin/../lib/gcc/arm-none-eabi/9.2.1/../../../../arm-none-eabi/lib/thumb/v7-m/nofp/libg_nano.a(lib_a-strcat.o)
 .debug_frame   0x0000000000000000       0x28 /home/jerryneedell/Microchip/SoftConsole-v6.4/arm-none-eabi-gcc/bin/../lib/gcc/arm-none-eabi/9.2.1/../../../../arm-none-eabi/lib/thumb/v7-m/nofp/libg_nano.a(lib_a-strcat.o)
 .text          0x0000000000000000       0x10 /home/jerryneedell/Microchip/SoftConsole-v6.4/arm-none-eabi-gcc/bin/../lib/gcc/arm-none-eabi/9.2.1/../../../../arm-none-eabi/lib/thumb/v7-m/nofp/libg_nano.a(lib_a-strlen.o)
 .data          0x0000000000000000        0x0 /home/jerryneedell/Microchip/SoftConsole-v6.4/arm-none-eabi-gcc/bin/../lib/gcc/arm-none-eabi/9.2.1/../../../../arm-none-eabi/lib/thumb/v7-m/nofp/libg_nano.a(lib_a-strlen.o)
 .bss           0x0000000000000000        0x0 /home/jerryneedell/Microchip/SoftConsole-v6.4/arm-none-eabi-gcc/bin/../lib/gcc/arm-none-eabi/9.2.1/../../../../arm-none-eabi/lib/thumb/v7-m/nofp/libg_nano.a(lib_a-strlen.o)
 .text          0x0000000000000000        0x0 /home/jerryneedell/Microchip/SoftConsole-v6.4/arm-none-eabi-gcc/bin/../lib/gcc/arm-none-eabi/9.2.1/../../../../arm-none-eabi/lib/thumb/v7-m/nofp/libg_nano.a(lib_a-strncpy.o)
 .data          0x0000000000000000        0x0 /home/jerryneedell/Microchip/SoftConsole-v6.4/arm-none-eabi-gcc/bin/../lib/gcc/arm-none-eabi/9.2.1/../../../../arm-none-eabi/lib/thumb/v7-m/nofp/libg_nano.a(lib_a-strncpy.o)
 .bss           0x0000000000000000        0x0 /home/jerryneedell/Microchip/SoftConsole-v6.4/arm-none-eabi-gcc/bin/../lib/gcc/arm-none-eabi/9.2.1/../../../../arm-none-eabi/lib/thumb/v7-m/nofp/libg_nano.a(lib_a-strncpy.o)
 .text          0x0000000000000000        0x0 /home/jerryneedell/Microchip/SoftConsole-v6.4/arm-none-eabi-gcc/bin/../lib/gcc/arm-none-eabi/9.2.1/../../../../arm-none-eabi/lib/thumb/v7-m/nofp/libg_nano.a(lib_a-wbuf.o)
 .data          0x0000000000000000        0x0 /home/jerryneedell/Microchip/SoftConsole-v6.4/arm-none-eabi-gcc/bin/../lib/gcc/arm-none-eabi/9.2.1/../../../../arm-none-eabi/lib/thumb/v7-m/nofp/libg_nano.a(lib_a-wbuf.o)
 .bss           0x0000000000000000        0x0 /home/jerryneedell/Microchip/SoftConsole-v6.4/arm-none-eabi-gcc/bin/../lib/gcc/arm-none-eabi/9.2.1/../../../../arm-none-eabi/lib/thumb/v7-m/nofp/libg_nano.a(lib_a-wbuf.o)
 .text.__swbuf  0x0000000000000000       0x10 /home/jerryneedell/Microchip/SoftConsole-v6.4/arm-none-eabi-gcc/bin/../lib/gcc/arm-none-eabi/9.2.1/../../../../arm-none-eabi/lib/thumb/v7-m/nofp/libg_nano.a(lib_a-wbuf.o)
 .text          0x0000000000000000        0x0 /home/jerryneedell/Microchip/SoftConsole-v6.4/arm-none-eabi-gcc/bin/../lib/gcc/arm-none-eabi/9.2.1/../../../../arm-none-eabi/lib/thumb/v7-m/nofp/libg_nano.a(lib_a-wsetup.o)
 .data          0x0000000000000000        0x0 /home/jerryneedell/Microchip/SoftConsole-v6.4/arm-none-eabi-gcc/bin/../lib/gcc/arm-none-eabi/9.2.1/../../../../arm-none-eabi/lib/thumb/v7-m/nofp/libg_nano.a(lib_a-wsetup.o)
 .bss           0x0000000000000000        0x0 /home/jerryneedell/Microchip/SoftConsole-v6.4/arm-none-eabi-gcc/bin/../lib/gcc/arm-none-eabi/9.2.1/../../../../arm-none-eabi/lib/thumb/v7-m/nofp/libg_nano.a(lib_a-wsetup.o)
 .text          0x0000000000000000        0x0 /home/jerryneedell/Microchip/SoftConsole-v6.4/arm-none-eabi-gcc/bin/../lib/gcc/arm-none-eabi/9.2.1/../../../../arm-none-eabi/lib/thumb/v7-m/nofp/libg_nano.a(lib_a-abort.o)
 .data          0x0000000000000000        0x0 /home/jerryneedell/Microchip/SoftConsole-v6.4/arm-none-eabi-gcc/bin/../lib/gcc/arm-none-eabi/9.2.1/../../../../arm-none-eabi/lib/thumb/v7-m/nofp/libg_nano.a(lib_a-abort.o)
 .bss           0x0000000000000000        0x0 /home/jerryneedell/Microchip/SoftConsole-v6.4/arm-none-eabi-gcc/bin/../lib/gcc/arm-none-eabi/9.2.1/../../../../arm-none-eabi/lib/thumb/v7-m/nofp/libg_nano.a(lib_a-abort.o)
 .text          0x0000000000000000        0x0 /home/jerryneedell/Microchip/SoftConsole-v6.4/arm-none-eabi-gcc/bin/../lib/gcc/arm-none-eabi/9.2.1/../../../../arm-none-eabi/lib/thumb/v7-m/nofp/libg_nano.a(lib_a-fflush.o)
 .data          0x0000000000000000        0x0 /home/jerryneedell/Microchip/SoftConsole-v6.4/arm-none-eabi-gcc/bin/../lib/gcc/arm-none-eabi/9.2.1/../../../../arm-none-eabi/lib/thumb/v7-m/nofp/libg_nano.a(lib_a-fflush.o)
 .bss           0x0000000000000000        0x0 /home/jerryneedell/Microchip/SoftConsole-v6.4/arm-none-eabi-gcc/bin/../lib/gcc/arm-none-eabi/9.2.1/../../../../arm-none-eabi/lib/thumb/v7-m/nofp/libg_nano.a(lib_a-fflush.o)
 .text.fflush   0x0000000000000000       0x24 /home/jerryneedell/Microchip/SoftConsole-v6.4/arm-none-eabi-gcc/bin/../lib/gcc/arm-none-eabi/9.2.1/../../../../arm-none-eabi/lib/thumb/v7-m/nofp/libg_nano.a(lib_a-fflush.o)
 .text          0x0000000000000000        0x0 /home/jerryneedell/Microchip/SoftConsole-v6.4/arm-none-eabi-gcc/bin/../lib/gcc/arm-none-eabi/9.2.1/../../../../arm-none-eabi/lib/thumb/v7-m/nofp/libg_nano.a(lib_a-findfp.o)
 .data          0x0000000000000000        0x0 /home/jerryneedell/Microchip/SoftConsole-v6.4/arm-none-eabi-gcc/bin/../lib/gcc/arm-none-eabi/9.2.1/../../../../arm-none-eabi/lib/thumb/v7-m/nofp/libg_nano.a(lib_a-findfp.o)
 .bss           0x0000000000000000        0x0 /home/jerryneedell/Microchip/SoftConsole-v6.4/arm-none-eabi-gcc/bin/../lib/gcc/arm-none-eabi/9.2.1/../../../../arm-none-eabi/lib/thumb/v7-m/nofp/libg_nano.a(lib_a-findfp.o)
 .text.__fp_lock
                0x0000000000000000       0x18 /home/jerryneedell/Microchip/SoftConsole-v6.4/arm-none-eabi-gcc/bin/../lib/gcc/arm-none-eabi/9.2.1/../../../../arm-none-eabi/lib/thumb/v7-m/nofp/libg_nano.a(lib_a-findfp.o)
 .text.__fp_unlock
                0x0000000000000000       0x18 /home/jerryneedell/Microchip/SoftConsole-v6.4/arm-none-eabi-gcc/bin/../lib/gcc/arm-none-eabi/9.2.1/../../../../arm-none-eabi/lib/thumb/v7-m/nofp/libg_nano.a(lib_a-findfp.o)
 .text._cleanup
                0x0000000000000000        0xc /home/jerryneedell/Microchip/SoftConsole-v6.4/arm-none-eabi-gcc/bin/../lib/gcc/arm-none-eabi/9.2.1/../../../../arm-none-eabi/lib/thumb/v7-m/nofp/libg_nano.a(lib_a-findfp.o)
 .text.__fp_lock_all
                0x0000000000000000       0x1c /home/jerryneedell/Microchip/SoftConsole-v6.4/arm-none-eabi-gcc/bin/../lib/gcc/arm-none-eabi/9.2.1/../../../../arm-none-eabi/lib/thumb/v7-m/nofp/libg_nano.a(lib_a-findfp.o)
 .text.__fp_unlock_all
                0x0000000000000000       0x1c /home/jerryneedell/Microchip/SoftConsole-v6.4/arm-none-eabi-gcc/bin/../lib/gcc/arm-none-eabi/9.2.1/../../../../arm-none-eabi/lib/thumb/v7-m/nofp/libg_nano.a(lib_a-findfp.o)
 .text          0x0000000000000000        0x0 /home/jerryneedell/Microchip/SoftConsole-v6.4/arm-none-eabi-gcc/bin/../lib/gcc/arm-none-eabi/9.2.1/../../../../arm-none-eabi/lib/thumb/v7-m/nofp/libg_nano.a(lib_a-fvwrite.o)
 .data          0x0000000000000000        0x0 /home/jerryneedell/Microchip/SoftConsole-v6.4/arm-none-eabi-gcc/bin/../lib/gcc/arm-none-eabi/9.2.1/../../../../arm-none-eabi/lib/thumb/v7-m/nofp/libg_nano.a(lib_a-fvwrite.o)
 .bss           0x0000000000000000        0x0 /home/jerryneedell/Microchip/SoftConsole-v6.4/arm-none-eabi-gcc/bin/../lib/gcc/arm-none-eabi/9.2.1/../../../../arm-none-eabi/lib/thumb/v7-m/nofp/libg_nano.a(lib_a-fvwrite.o)
 .text.__sfvwrite_r
                0x0000000000000000      0x294 /home/jerryneedell/Microchip/SoftConsole-v6.4/arm-none-eabi-gcc/bin/../lib/gcc/arm-none-eabi/9.2.1/../../../../arm-none-eabi/lib/thumb/v7-m/nofp/libg_nano.a(lib_a-fvwrite.o)
 .debug_frame   0x0000000000000000       0x3c /home/jerryneedell/Microchip/SoftConsole-v6.4/arm-none-eabi-gcc/bin/../lib/gcc/arm-none-eabi/9.2.1/../../../../arm-none-eabi/lib/thumb/v7-m/nofp/libg_nano.a(lib_a-fvwrite.o)
 .text          0x0000000000000000        0x0 /home/jerryneedell/Microchip/SoftConsole-v6.4/arm-none-eabi-gcc/bin/../lib/gcc/arm-none-eabi/9.2.1/../../../../arm-none-eabi/lib/thumb/v7-m/nofp/libg_nano.a(lib_a-fwalk.o)
 .data          0x0000000000000000        0x0 /home/jerryneedell/Microchip/SoftConsole-v6.4/arm-none-eabi-gcc/bin/../lib/gcc/arm-none-eabi/9.2.1/../../../../arm-none-eabi/lib/thumb/v7-m/nofp/libg_nano.a(lib_a-fwalk.o)
 .bss           0x0000000000000000        0x0 /home/jerryneedell/Microchip/SoftConsole-v6.4/arm-none-eabi-gcc/bin/../lib/gcc/arm-none-eabi/9.2.1/../../../../arm-none-eabi/lib/thumb/v7-m/nofp/libg_nano.a(lib_a-fwalk.o)
 .text._fwalk   0x0000000000000000       0x3a /home/jerryneedell/Microchip/SoftConsole-v6.4/arm-none-eabi-gcc/bin/../lib/gcc/arm-none-eabi/9.2.1/../../../../arm-none-eabi/lib/thumb/v7-m/nofp/libg_nano.a(lib_a-fwalk.o)
 .text          0x0000000000000000        0x0 /home/jerryneedell/Microchip/SoftConsole-v6.4/arm-none-eabi-gcc/bin/../lib/gcc/arm-none-eabi/9.2.1/../../../../arm-none-eabi/lib/thumb/v7-m/nofp/libg_nano.a(lib_a-lock.o)
 .data          0x0000000000000000        0x0 /home/jerryneedell/Microchip/SoftConsole-v6.4/arm-none-eabi-gcc/bin/../lib/gcc/arm-none-eabi/9.2.1/../../../../arm-none-eabi/lib/thumb/v7-m/nofp/libg_nano.a(lib_a-lock.o)
 .bss           0x0000000000000000        0x0 /home/jerryneedell/Microchip/SoftConsole-v6.4/arm-none-eabi-gcc/bin/../lib/gcc/arm-none-eabi/9.2.1/../../../../arm-none-eabi/lib/thumb/v7-m/nofp/libg_nano.a(lib_a-lock.o)
 .text.__retarget_lock_init
                0x0000000000000000        0x2 /home/jerryneedell/Microchip/SoftConsole-v6.4/arm-none-eabi-gcc/bin/../lib/gcc/arm-none-eabi/9.2.1/../../../../arm-none-eabi/lib/thumb/v7-m/nofp/libg_nano.a(lib_a-lock.o)
 .text.__retarget_lock_close
                0x0000000000000000        0x2 /home/jerryneedell/Microchip/SoftConsole-v6.4/arm-none-eabi-gcc/bin/../lib/gcc/arm-none-eabi/9.2.1/../../../../arm-none-eabi/lib/thumb/v7-m/nofp/libg_nano.a(lib_a-lock.o)
 .text.__retarget_lock_close_recursive
                0x0000000000000000        0x2 /home/jerryneedell/Microchip/SoftConsole-v6.4/arm-none-eabi-gcc/bin/../lib/gcc/arm-none-eabi/9.2.1/../../../../arm-none-eabi/lib/thumb/v7-m/nofp/libg_nano.a(lib_a-lock.o)
 .text.__retarget_lock_acquire
                0x0000000000000000        0x2 /home/jerryneedell/Microchip/SoftConsole-v6.4/arm-none-eabi-gcc/bin/../lib/gcc/arm-none-eabi/9.2.1/../../../../arm-none-eabi/lib/thumb/v7-m/nofp/libg_nano.a(lib_a-lock.o)
 .text.__retarget_lock_try_acquire
                0x0000000000000000        0x4 /home/jerryneedell/Microchip/SoftConsole-v6.4/arm-none-eabi-gcc/bin/../lib/gcc/arm-none-eabi/9.2.1/../../../../arm-none-eabi/lib/thumb/v7-m/nofp/libg_nano.a(lib_a-lock.o)
 .text.__retarget_lock_try_acquire_recursive
                0x0000000000000000        0x4 /home/jerryneedell/Microchip/SoftConsole-v6.4/arm-none-eabi-gcc/bin/../lib/gcc/arm-none-eabi/9.2.1/../../../../arm-none-eabi/lib/thumb/v7-m/nofp/libg_nano.a(lib_a-lock.o)
 .text.__retarget_lock_release
                0x0000000000000000        0x2 /home/jerryneedell/Microchip/SoftConsole-v6.4/arm-none-eabi-gcc/bin/../lib/gcc/arm-none-eabi/9.2.1/../../../../arm-none-eabi/lib/thumb/v7-m/nofp/libg_nano.a(lib_a-lock.o)
 .text          0x0000000000000000        0x0 /home/jerryneedell/Microchip/SoftConsole-v6.4/arm-none-eabi-gcc/bin/../lib/gcc/arm-none-eabi/9.2.1/../../../../arm-none-eabi/lib/thumb/v7-m/nofp/libg_nano.a(lib_a-makebuf.o)
 .data          0x0000000000000000        0x0 /home/jerryneedell/Microchip/SoftConsole-v6.4/arm-none-eabi-gcc/bin/../lib/gcc/arm-none-eabi/9.2.1/../../../../arm-none-eabi/lib/thumb/v7-m/nofp/libg_nano.a(lib_a-makebuf.o)
 .bss           0x0000000000000000        0x0 /home/jerryneedell/Microchip/SoftConsole-v6.4/arm-none-eabi-gcc/bin/../lib/gcc/arm-none-eabi/9.2.1/../../../../arm-none-eabi/lib/thumb/v7-m/nofp/libg_nano.a(lib_a-makebuf.o)
 .text          0x0000000000000000        0x0 /home/jerryneedell/Microchip/SoftConsole-v6.4/arm-none-eabi-gcc/bin/../lib/gcc/arm-none-eabi/9.2.1/../../../../arm-none-eabi/lib/thumb/v7-m/nofp/libg_nano.a(lib_a-memchr-stub.o)
 .data          0x0000000000000000        0x0 /home/jerryneedell/Microchip/SoftConsole-v6.4/arm-none-eabi-gcc/bin/../lib/gcc/arm-none-eabi/9.2.1/../../../../arm-none-eabi/lib/thumb/v7-m/nofp/libg_nano.a(lib_a-memchr-stub.o)
 .bss           0x0000000000000000        0x0 /home/jerryneedell/Microchip/SoftConsole-v6.4/arm-none-eabi-gcc/bin/../lib/gcc/arm-none-eabi/9.2.1/../../../../arm-none-eabi/lib/thumb/v7-m/nofp/libg_nano.a(lib_a-memchr-stub.o)
 .text          0x0000000000000000        0x0 /home/jerryneedell/Microchip/SoftConsole-v6.4/arm-none-eabi-gcc/bin/../lib/gcc/arm-none-eabi/9.2.1/../../../../arm-none-eabi/lib/thumb/v7-m/nofp/libg_nano.a(lib_a-memmove.o)
 .data          0x0000000000000000        0x0 /home/jerryneedell/Microchip/SoftConsole-v6.4/arm-none-eabi-gcc/bin/../lib/gcc/arm-none-eabi/9.2.1/../../../../arm-none-eabi/lib/thumb/v7-m/nofp/libg_nano.a(lib_a-memmove.o)
 .bss           0x0000000000000000        0x0 /home/jerryneedell/Microchip/SoftConsole-v6.4/arm-none-eabi-gcc/bin/../lib/gcc/arm-none-eabi/9.2.1/../../../../arm-none-eabi/lib/thumb/v7-m/nofp/libg_nano.a(lib_a-memmove.o)
 .text          0x0000000000000000        0x0 /home/jerryneedell/Microchip/SoftConsole-v6.4/arm-none-eabi-gcc/bin/../lib/gcc/arm-none-eabi/9.2.1/../../../../arm-none-eabi/lib/thumb/v7-m/nofp/libg_nano.a(lib_a-nano-freer.o)
 .data          0x0000000000000000        0x0 /home/jerryneedell/Microchip/SoftConsole-v6.4/arm-none-eabi-gcc/bin/../lib/gcc/arm-none-eabi/9.2.1/../../../../arm-none-eabi/lib/thumb/v7-m/nofp/libg_nano.a(lib_a-nano-freer.o)
 .bss           0x0000000000000000        0x0 /home/jerryneedell/Microchip/SoftConsole-v6.4/arm-none-eabi-gcc/bin/../lib/gcc/arm-none-eabi/9.2.1/../../../../arm-none-eabi/lib/thumb/v7-m/nofp/libg_nano.a(lib_a-nano-freer.o)
 .text          0x0000000000000000        0x0 /home/jerryneedell/Microchip/SoftConsole-v6.4/arm-none-eabi-gcc/bin/../lib/gcc/arm-none-eabi/9.2.1/../../../../arm-none-eabi/lib/thumb/v7-m/nofp/libg_nano.a(lib_a-nano-mallocr.o)
 .data          0x0000000000000000        0x0 /home/jerryneedell/Microchip/SoftConsole-v6.4/arm-none-eabi-gcc/bin/../lib/gcc/arm-none-eabi/9.2.1/../../../../arm-none-eabi/lib/thumb/v7-m/nofp/libg_nano.a(lib_a-nano-mallocr.o)
 .bss           0x0000000000000000        0x0 /home/jerryneedell/Microchip/SoftConsole-v6.4/arm-none-eabi-gcc/bin/../lib/gcc/arm-none-eabi/9.2.1/../../../../arm-none-eabi/lib/thumb/v7-m/nofp/libg_nano.a(lib_a-nano-mallocr.o)
 .text          0x0000000000000000        0x0 /home/jerryneedell/Microchip/SoftConsole-v6.4/arm-none-eabi-gcc/bin/../lib/gcc/arm-none-eabi/9.2.1/../../../../arm-none-eabi/lib/thumb/v7-m/nofp/libg_nano.a(lib_a-nano-reallocr.o)
 .data          0x0000000000000000        0x0 /home/jerryneedell/Microchip/SoftConsole-v6.4/arm-none-eabi-gcc/bin/../lib/gcc/arm-none-eabi/9.2.1/../../../../arm-none-eabi/lib/thumb/v7-m/nofp/libg_nano.a(lib_a-nano-reallocr.o)
 .bss           0x0000000000000000        0x0 /home/jerryneedell/Microchip/SoftConsole-v6.4/arm-none-eabi-gcc/bin/../lib/gcc/arm-none-eabi/9.2.1/../../../../arm-none-eabi/lib/thumb/v7-m/nofp/libg_nano.a(lib_a-nano-reallocr.o)
 .text          0x0000000000000000        0x0 /home/jerryneedell/Microchip/SoftConsole-v6.4/arm-none-eabi-gcc/bin/../lib/gcc/arm-none-eabi/9.2.1/../../../../arm-none-eabi/lib/thumb/v7-m/nofp/libg_nano.a(lib_a-nano-svfprintf.o)
 .data          0x0000000000000000        0x0 /home/jerryneedell/Microchip/SoftConsole-v6.4/arm-none-eabi-gcc/bin/../lib/gcc/arm-none-eabi/9.2.1/../../../../arm-none-eabi/lib/thumb/v7-m/nofp/libg_nano.a(lib_a-nano-svfprintf.o)
 .bss           0x0000000000000000        0x0 /home/jerryneedell/Microchip/SoftConsole-v6.4/arm-none-eabi-gcc/bin/../lib/gcc/arm-none-eabi/9.2.1/../../../../arm-none-eabi/lib/thumb/v7-m/nofp/libg_nano.a(lib_a-nano-svfprintf.o)
 .text.__ssprint_r
                0x0000000000000000       0xf6 /home/jerryneedell/Microchip/SoftConsole-v6.4/arm-none-eabi-gcc/bin/../lib/gcc/arm-none-eabi/9.2.1/../../../../arm-none-eabi/lib/thumb/v7-m/nofp/libg_nano.a(lib_a-nano-svfprintf.o)
 .text          0x0000000000000000        0x0 /home/jerryneedell/Microchip/SoftConsole-v6.4/arm-none-eabi-gcc/bin/../lib/gcc/arm-none-eabi/9.2.1/../../../../arm-none-eabi/lib/thumb/v7-m/nofp/libg_nano.a(lib_a-sbrkr.o)
 .data          0x0000000000000000        0x0 /home/jerryneedell/Microchip/SoftConsole-v6.4/arm-none-eabi-gcc/bin/../lib/gcc/arm-none-eabi/9.2.1/../../../../arm-none-eabi/lib/thumb/v7-m/nofp/libg_nano.a(lib_a-sbrkr.o)
 .bss           0x0000000000000000        0x0 /home/jerryneedell/Microchip/SoftConsole-v6.4/arm-none-eabi-gcc/bin/../lib/gcc/arm-none-eabi/9.2.1/../../../../arm-none-eabi/lib/thumb/v7-m/nofp/libg_nano.a(lib_a-sbrkr.o)
 .text          0x0000000000000000        0x0 /home/jerryneedell/Microchip/SoftConsole-v6.4/arm-none-eabi-gcc/bin/../lib/gcc/arm-none-eabi/9.2.1/../../../../arm-none-eabi/lib/thumb/v7-m/nofp/libg_nano.a(lib_a-signal.o)
 .data          0x0000000000000000        0x0 /home/jerryneedell/Microchip/SoftConsole-v6.4/arm-none-eabi-gcc/bin/../lib/gcc/arm-none-eabi/9.2.1/../../../../arm-none-eabi/lib/thumb/v7-m/nofp/libg_nano.a(lib_a-signal.o)
 .bss           0x0000000000000000        0x0 /home/jerryneedell/Microchip/SoftConsole-v6.4/arm-none-eabi-gcc/bin/../lib/gcc/arm-none-eabi/9.2.1/../../../../arm-none-eabi/lib/thumb/v7-m/nofp/libg_nano.a(lib_a-signal.o)
 .text._init_signal_r
                0x0000000000000000       0x28 /home/jerryneedell/Microchip/SoftConsole-v6.4/arm-none-eabi-gcc/bin/../lib/gcc/arm-none-eabi/9.2.1/../../../../arm-none-eabi/lib/thumb/v7-m/nofp/libg_nano.a(lib_a-signal.o)
 .text._signal_r
                0x0000000000000000       0x30 /home/jerryneedell/Microchip/SoftConsole-v6.4/arm-none-eabi-gcc/bin/../lib/gcc/arm-none-eabi/9.2.1/../../../../arm-none-eabi/lib/thumb/v7-m/nofp/libg_nano.a(lib_a-signal.o)
 .text.__sigtramp_r
                0x0000000000000000       0x48 /home/jerryneedell/Microchip/SoftConsole-v6.4/arm-none-eabi-gcc/bin/../lib/gcc/arm-none-eabi/9.2.1/../../../../arm-none-eabi/lib/thumb/v7-m/nofp/libg_nano.a(lib_a-signal.o)
 .text.signal   0x0000000000000000       0x10 /home/jerryneedell/Microchip/SoftConsole-v6.4/arm-none-eabi-gcc/bin/../lib/gcc/arm-none-eabi/9.2.1/../../../../arm-none-eabi/lib/thumb/v7-m/nofp/libg_nano.a(lib_a-signal.o)
 .text._init_signal
                0x0000000000000000        0xc /home/jerryneedell/Microchip/SoftConsole-v6.4/arm-none-eabi-gcc/bin/../lib/gcc/arm-none-eabi/9.2.1/../../../../arm-none-eabi/lib/thumb/v7-m/nofp/libg_nano.a(lib_a-signal.o)
 .text.__sigtramp
                0x0000000000000000       0x10 /home/jerryneedell/Microchip/SoftConsole-v6.4/arm-none-eabi-gcc/bin/../lib/gcc/arm-none-eabi/9.2.1/../../../../arm-none-eabi/lib/thumb/v7-m/nofp/libg_nano.a(lib_a-signal.o)
 .text          0x0000000000000000        0x0 /home/jerryneedell/Microchip/SoftConsole-v6.4/arm-none-eabi-gcc/bin/../lib/gcc/arm-none-eabi/9.2.1/../../../../arm-none-eabi/lib/thumb/v7-m/nofp/libg_nano.a(lib_a-signalr.o)
 .data          0x0000000000000000        0x0 /home/jerryneedell/Microchip/SoftConsole-v6.4/arm-none-eabi-gcc/bin/../lib/gcc/arm-none-eabi/9.2.1/../../../../arm-none-eabi/lib/thumb/v7-m/nofp/libg_nano.a(lib_a-signalr.o)
 .bss           0x0000000000000000        0x0 /home/jerryneedell/Microchip/SoftConsole-v6.4/arm-none-eabi-gcc/bin/../lib/gcc/arm-none-eabi/9.2.1/../../../../arm-none-eabi/lib/thumb/v7-m/nofp/libg_nano.a(lib_a-signalr.o)
 .text          0x0000000000000000        0x0 /home/jerryneedell/Microchip/SoftConsole-v6.4/arm-none-eabi-gcc/bin/../lib/gcc/arm-none-eabi/9.2.1/../../../../arm-none-eabi/lib/thumb/v7-m/nofp/libg_nano.a(lib_a-stdio.o)
 .data          0x0000000000000000        0x0 /home/jerryneedell/Microchip/SoftConsole-v6.4/arm-none-eabi-gcc/bin/../lib/gcc/arm-none-eabi/9.2.1/../../../../arm-none-eabi/lib/thumb/v7-m/nofp/libg_nano.a(lib_a-stdio.o)
 .bss           0x0000000000000000        0x0 /home/jerryneedell/Microchip/SoftConsole-v6.4/arm-none-eabi-gcc/bin/../lib/gcc/arm-none-eabi/9.2.1/../../../../arm-none-eabi/lib/thumb/v7-m/nofp/libg_nano.a(lib_a-stdio.o)
 .text.__seofread
                0x0000000000000000        0x4 /home/jerryneedell/Microchip/SoftConsole-v6.4/arm-none-eabi-gcc/bin/../lib/gcc/arm-none-eabi/9.2.1/../../../../arm-none-eabi/lib/thumb/v7-m/nofp/libg_nano.a(lib_a-stdio.o)
 .text          0x0000000000000000        0x0 /home/jerryneedell/Microchip/SoftConsole-v6.4/arm-none-eabi-gcc/bin/../lib/gcc/arm-none-eabi/9.2.1/../../../../arm-none-eabi/lib/thumb/v7-m/nofp/libg_nano.a(lib_a-closer.o)
 .data          0x0000000000000000        0x0 /home/jerryneedell/Microchip/SoftConsole-v6.4/arm-none-eabi-gcc/bin/../lib/gcc/arm-none-eabi/9.2.1/../../../../arm-none-eabi/lib/thumb/v7-m/nofp/libg_nano.a(lib_a-closer.o)
 .bss           0x0000000000000000        0x0 /home/jerryneedell/Microchip/SoftConsole-v6.4/arm-none-eabi-gcc/bin/../lib/gcc/arm-none-eabi/9.2.1/../../../../arm-none-eabi/lib/thumb/v7-m/nofp/libg_nano.a(lib_a-closer.o)
 .text          0x0000000000000000        0x0 /home/jerryneedell/Microchip/SoftConsole-v6.4/arm-none-eabi-gcc/bin/../lib/gcc/arm-none-eabi/9.2.1/../../../../arm-none-eabi/lib/thumb/v7-m/nofp/libg_nano.a(lib_a-fstatr.o)
 .data          0x0000000000000000        0x0 /home/jerryneedell/Microchip/SoftConsole-v6.4/arm-none-eabi-gcc/bin/../lib/gcc/arm-none-eabi/9.2.1/../../../../arm-none-eabi/lib/thumb/v7-m/nofp/libg_nano.a(lib_a-fstatr.o)
 .bss           0x0000000000000000        0x0 /home/jerryneedell/Microchip/SoftConsole-v6.4/arm-none-eabi-gcc/bin/../lib/gcc/arm-none-eabi/9.2.1/../../../../arm-none-eabi/lib/thumb/v7-m/nofp/libg_nano.a(lib_a-fstatr.o)
 .text          0x0000000000000000        0x0 /home/jerryneedell/Microchip/SoftConsole-v6.4/arm-none-eabi-gcc/bin/../lib/gcc/arm-none-eabi/9.2.1/../../../../arm-none-eabi/lib/thumb/v7-m/nofp/libg_nano.a(lib_a-isattyr.o)
 .data          0x0000000000000000        0x0 /home/jerryneedell/Microchip/SoftConsole-v6.4/arm-none-eabi-gcc/bin/../lib/gcc/arm-none-eabi/9.2.1/../../../../arm-none-eabi/lib/thumb/v7-m/nofp/libg_nano.a(lib_a-isattyr.o)
 .bss           0x0000000000000000        0x0 /home/jerryneedell/Microchip/SoftConsole-v6.4/arm-none-eabi-gcc/bin/../lib/gcc/arm-none-eabi/9.2.1/../../../../arm-none-eabi/lib/thumb/v7-m/nofp/libg_nano.a(lib_a-isattyr.o)
 .text          0x0000000000000000        0x0 /home/jerryneedell/Microchip/SoftConsole-v6.4/arm-none-eabi-gcc/bin/../lib/gcc/arm-none-eabi/9.2.1/../../../../arm-none-eabi/lib/thumb/v7-m/nofp/libg_nano.a(lib_a-lseekr.o)
 .data          0x0000000000000000        0x0 /home/jerryneedell/Microchip/SoftConsole-v6.4/arm-none-eabi-gcc/bin/../lib/gcc/arm-none-eabi/9.2.1/../../../../arm-none-eabi/lib/thumb/v7-m/nofp/libg_nano.a(lib_a-lseekr.o)
 .bss           0x0000000000000000        0x0 /home/jerryneedell/Microchip/SoftConsole-v6.4/arm-none-eabi-gcc/bin/../lib/gcc/arm-none-eabi/9.2.1/../../../../arm-none-eabi/lib/thumb/v7-m/nofp/libg_nano.a(lib_a-lseekr.o)
 .text          0x0000000000000000        0x0 /home/jerryneedell/Microchip/SoftConsole-v6.4/arm-none-eabi-gcc/bin/../lib/gcc/arm-none-eabi/9.2.1/../../../../arm-none-eabi/lib/thumb/v7-m/nofp/libg_nano.a(lib_a-mlock.o)
 .data          0x0000000000000000        0x0 /home/jerryneedell/Microchip/SoftConsole-v6.4/arm-none-eabi-gcc/bin/../lib/gcc/arm-none-eabi/9.2.1/../../../../arm-none-eabi/lib/thumb/v7-m/nofp/libg_nano.a(lib_a-mlock.o)
 .bss           0x0000000000000000        0x0 /home/jerryneedell/Microchip/SoftConsole-v6.4/arm-none-eabi-gcc/bin/../lib/gcc/arm-none-eabi/9.2.1/../../../../arm-none-eabi/lib/thumb/v7-m/nofp/libg_nano.a(lib_a-mlock.o)
 .text          0x0000000000000000        0x0 /home/jerryneedell/Microchip/SoftConsole-v6.4/arm-none-eabi-gcc/bin/../lib/gcc/arm-none-eabi/9.2.1/../../../../arm-none-eabi/lib/thumb/v7-m/nofp/libg_nano.a(lib_a-nano-msizer.o)
 .data          0x0000000000000000        0x0 /home/jerryneedell/Microchip/SoftConsole-v6.4/arm-none-eabi-gcc/bin/../lib/gcc/arm-none-eabi/9.2.1/../../../../arm-none-eabi/lib/thumb/v7-m/nofp/libg_nano.a(lib_a-nano-msizer.o)
 .bss           0x0000000000000000        0x0 /home/jerryneedell/Microchip/SoftConsole-v6.4/arm-none-eabi-gcc/bin/../lib/gcc/arm-none-eabi/9.2.1/../../../../arm-none-eabi/lib/thumb/v7-m/nofp/libg_nano.a(lib_a-nano-msizer.o)
 .text          0x0000000000000000        0x0 /home/jerryneedell/Microchip/SoftConsole-v6.4/arm-none-eabi-gcc/bin/../lib/gcc/arm-none-eabi/9.2.1/../../../../arm-none-eabi/lib/thumb/v7-m/nofp/libg_nano.a(lib_a-readr.o)
 .data          0x0000000000000000        0x0 /home/jerryneedell/Microchip/SoftConsole-v6.4/arm-none-eabi-gcc/bin/../lib/gcc/arm-none-eabi/9.2.1/../../../../arm-none-eabi/lib/thumb/v7-m/nofp/libg_nano.a(lib_a-readr.o)
 .bss           0x0000000000000000        0x0 /home/jerryneedell/Microchip/SoftConsole-v6.4/arm-none-eabi-gcc/bin/../lib/gcc/arm-none-eabi/9.2.1/../../../../arm-none-eabi/lib/thumb/v7-m/nofp/libg_nano.a(lib_a-readr.o)
 .text          0x0000000000000000        0x0 /home/jerryneedell/Microchip/SoftConsole-v6.4/arm-none-eabi-gcc/bin/../lib/gcc/arm-none-eabi/9.2.1/../../../../arm-none-eabi/lib/thumb/v7-m/nofp/libg_nano.a(lib_a-reent.o)
 .data          0x0000000000000000        0x0 /home/jerryneedell/Microchip/SoftConsole-v6.4/arm-none-eabi-gcc/bin/../lib/gcc/arm-none-eabi/9.2.1/../../../../arm-none-eabi/lib/thumb/v7-m/nofp/libg_nano.a(lib_a-reent.o)
 .bss           0x0000000000000000        0x0 /home/jerryneedell/Microchip/SoftConsole-v6.4/arm-none-eabi-gcc/bin/../lib/gcc/arm-none-eabi/9.2.1/../../../../arm-none-eabi/lib/thumb/v7-m/nofp/libg_nano.a(lib_a-reent.o)
 .text.cleanup_glue
                0x0000000000000000       0x1a /home/jerryneedell/Microchip/SoftConsole-v6.4/arm-none-eabi-gcc/bin/../lib/gcc/arm-none-eabi/9.2.1/../../../../arm-none-eabi/lib/thumb/v7-m/nofp/libg_nano.a(lib_a-reent.o)
 .text._reclaim_reent
                0x0000000000000000       0xb8 /home/jerryneedell/Microchip/SoftConsole-v6.4/arm-none-eabi-gcc/bin/../lib/gcc/arm-none-eabi/9.2.1/../../../../arm-none-eabi/lib/thumb/v7-m/nofp/libg_nano.a(lib_a-reent.o)
 .text          0x0000000000000000        0x0 /home/jerryneedell/Microchip/SoftConsole-v6.4/arm-none-eabi-gcc/bin/../lib/gcc/arm-none-eabi/9.2.1/thumb/v7-m/nofp/crtend.o
 .data          0x0000000000000000        0x0 /home/jerryneedell/Microchip/SoftConsole-v6.4/arm-none-eabi-gcc/bin/../lib/gcc/arm-none-eabi/9.2.1/thumb/v7-m/nofp/crtend.o
 .bss           0x0000000000000000        0x0 /home/jerryneedell/Microchip/SoftConsole-v6.4/arm-none-eabi-gcc/bin/../lib/gcc/arm-none-eabi/9.2.1/thumb/v7-m/nofp/crtend.o
 .eh_frame      0x0000000000000000        0x4 /home/jerryneedell/Microchip/SoftConsole-v6.4/arm-none-eabi-gcc/bin/../lib/gcc/arm-none-eabi/9.2.1/thumb/v7-m/nofp/crtend.o
 .text          0x0000000000000000        0x0 /home/jerryneedell/Microchip/SoftConsole-v6.4/arm-none-eabi-gcc/bin/../lib/gcc/arm-none-eabi/9.2.1/thumb/v7-m/nofp/crtn.o
 .data          0x0000000000000000        0x0 /home/jerryneedell/Microchip/SoftConsole-v6.4/arm-none-eabi-gcc/bin/../lib/gcc/arm-none-eabi/9.2.1/thumb/v7-m/nofp/crtn.o
 .bss           0x0000000000000000        0x0 /home/jerryneedell/Microchip/SoftConsole-v6.4/arm-none-eabi-gcc/bin/../lib/gcc/arm-none-eabi/9.2.1/thumb/v7-m/nofp/crtn.o

Memory Configuration

Name             Origin             Length             Attributes
rom              0x0000000000000000 0x0000000000040000 xr
ram              0x0000000020000000 0x0000000000010000 xrw
*default*        0x0000000000000000 0xffffffffffffffff

Linker script and memory map

LOAD /home/jerryneedell/Microchip/SoftConsole-v6.4/arm-none-eabi-gcc/bin/../lib/gcc/arm-none-eabi/9.2.1/thumb/v7-m/nofp/crti.o
LOAD /home/jerryneedell/Microchip/SoftConsole-v6.4/arm-none-eabi-gcc/bin/../lib/gcc/arm-none-eabi/9.2.1/thumb/v7-m/nofp/crtbegin.o
LOAD /home/jerryneedell/Microchip/SoftConsole-v6.4/arm-none-eabi-gcc/bin/../lib/gcc/arm-none-eabi/9.2.1/../../../../arm-none-eabi/lib/thumb/v7-m/nofp/crt0.o
LOAD ./lwip-1.4.1/port/FreeRTOS/M2SXXX/sys_arch.o
LOAD ./lwip-1.4.1/netif/ppp/auth.o
LOAD ./lwip-1.4.1/netif/ppp/chap.o
LOAD ./lwip-1.4.1/netif/ppp/chpms.o
LOAD ./lwip-1.4.1/netif/ppp/fsm.o
LOAD ./lwip-1.4.1/netif/ppp/ipcp.o
LOAD ./lwip-1.4.1/netif/ppp/lcp.o
LOAD ./lwip-1.4.1/netif/ppp/magic.o
LOAD ./lwip-1.4.1/netif/ppp/md5.o
LOAD ./lwip-1.4.1/netif/ppp/pap.o
LOAD ./lwip-1.4.1/netif/ppp/ppp.o
LOAD ./lwip-1.4.1/netif/ppp/ppp_oe.o
LOAD ./lwip-1.4.1/netif/ppp/randm.o
LOAD ./lwip-1.4.1/netif/ppp/vj.o
LOAD ./lwip-1.4.1/netif/etharp.o
LOAD ./lwip-1.4.1/netif/ethernetif.o
LOAD ./lwip-1.4.1/netif/m2sxxx_ethernetif.o
LOAD ./lwip-1.4.1/netif/slipif.o
LOAD ./lwip-1.4.1/core/snmp/asn1_dec.o
LOAD ./lwip-1.4.1/core/snmp/asn1_enc.o
LOAD ./lwip-1.4.1/core/snmp/mib2.o
LOAD ./lwip-1.4.1/core/snmp/mib_structs.o
LOAD ./lwip-1.4.1/core/snmp/msg_in.o
LOAD ./lwip-1.4.1/core/snmp/msg_out.o
LOAD ./lwip-1.4.1/core/ipv4/autoip.o
LOAD ./lwip-1.4.1/core/ipv4/icmp.o
LOAD ./lwip-1.4.1/core/ipv4/igmp.o
LOAD ./lwip-1.4.1/core/ipv4/inet.o
LOAD ./lwip-1.4.1/core/ipv4/inet_chksum.o
LOAD ./lwip-1.4.1/core/ipv4/ip.o
LOAD ./lwip-1.4.1/core/ipv4/ip_addr.o
LOAD ./lwip-1.4.1/core/ipv4/ip_frag.o
LOAD ./lwip-1.4.1/core/def.o
LOAD ./lwip-1.4.1/core/dhcp.o
LOAD ./lwip-1.4.1/core/dns.o
LOAD ./lwip-1.4.1/core/init.o
LOAD ./lwip-1.4.1/core/lwip_timers.o
LOAD ./lwip-1.4.1/core/mem.o
LOAD ./lwip-1.4.1/core/memp.o
LOAD ./lwip-1.4.1/core/netif.o
LOAD ./lwip-1.4.1/core/pbuf.o
LOAD ./lwip-1.4.1/core/raw.o
LOAD ./lwip-1.4.1/core/stats.o
LOAD ./lwip-1.4.1/core/sys.o
LOAD ./lwip-1.4.1/core/tcp.o
LOAD ./lwip-1.4.1/core/tcp_in.o
LOAD ./lwip-1.4.1/core/tcp_out.o
LOAD ./lwip-1.4.1/core/udp.o
LOAD ./lwip-1.4.1/api/api_lib.o
LOAD ./lwip-1.4.1/api/api_msg.o
LOAD ./lwip-1.4.1/api/err.o
LOAD ./lwip-1.4.1/api/netbuf.o
LOAD ./lwip-1.4.1/api/netdb.o
LOAD ./lwip-1.4.1/api/netifapi.o
LOAD ./lwip-1.4.1/api/sockets.o
LOAD ./lwip-1.4.1/api/tcpip.o
LOAD ./hal/CortexM3/GNU/hal.o
LOAD ./hal/CortexM3/GNU/hw_reg_access.o
LOAD ./hal/CortexM3/cortex_nvic.o
LOAD ./drivers_config/sys_config/sys_config.o
LOAD ./drivers_config/sys_config/sys_config_SERDESIF_0.o
LOAD ./drivers/mss_uart/mss_uart.o
LOAD ./drivers/mss_sys_services/mss_comblk.o
LOAD ./drivers/mss_sys_services/mss_sys_services.o
LOAD ./drivers/mss_spi/mss_spi.o
LOAD ./drivers/mss_rtc/mss_rtc.o
LOAD ./drivers/mss_nvm/mss_nvm.o
LOAD ./drivers/mss_gpio/mss_gpio.o
LOAD ./drivers/mss_ethernet_mac/m88e1340_phy.o
LOAD ./drivers/mss_ethernet_mac/mss_ethernet_mac.o
LOAD ./WebServer/httpserver-netconn.o
LOAD ./WebServer/mscc_logo.o
LOAD ./FreeRTOS/portable/MemMang/heap_2.o
LOAD ./FreeRTOS/portable/GCC/ARM_CM3/port.o
LOAD ./FreeRTOS/croutine.o
LOAD ./FreeRTOS/list.o
LOAD ./FreeRTOS/queue.o
LOAD ./FreeRTOS/tasks.o
LOAD ./FreeRTOS/timers.o
LOAD ./CMSIS/startup_gcc/newlib_stubs.o
LOAD ./CMSIS/startup_gcc/startup_m2sxxx.o
LOAD ./CMSIS/system_m2sxxx.o
LOAD ./.metadata/.plugins/org.eclipse.cdt.make.core/specs.o
LOAD ./main.o
LOAD ./mscc_post_hw_cfg_init.o
LOAD ./sys_cfg.o
LOAD ./uart_task.o
START GROUP
LOAD /home/jerryneedell/Microchip/SoftConsole-v6.4/arm-none-eabi-gcc/bin/../lib/gcc/arm-none-eabi/9.2.1/thumb/v7-m/nofp/libgcc.a
LOAD /home/jerryneedell/Microchip/SoftConsole-v6.4/arm-none-eabi-gcc/bin/../lib/gcc/arm-none-eabi/9.2.1/../../../../arm-none-eabi/lib/thumb/v7-m/nofp/libg_nano.a
LOAD /home/jerryneedell/Microchip/SoftConsole-v6.4/arm-none-eabi-gcc/bin/../lib/gcc/arm-none-eabi/9.2.1/../../../../arm-none-eabi/lib/thumb/v7-m/nofp/libc_nano.a
END GROUP
START GROUP
LOAD /home/jerryneedell/Microchip/SoftConsole-v6.4/arm-none-eabi-gcc/bin/../lib/gcc/arm-none-eabi/9.2.1/thumb/v7-m/nofp/libgcc.a
LOAD /home/jerryneedell/Microchip/SoftConsole-v6.4/arm-none-eabi-gcc/bin/../lib/gcc/arm-none-eabi/9.2.1/../../../../arm-none-eabi/lib/thumb/v7-m/nofp/libc_nano.a
END GROUP
LOAD /home/jerryneedell/Microchip/SoftConsole-v6.4/arm-none-eabi-gcc/bin/../lib/gcc/arm-none-eabi/9.2.1/thumb/v7-m/nofp/crtend.o
LOAD /home/jerryneedell/Microchip/SoftConsole-v6.4/arm-none-eabi-gcc/bin/../lib/gcc/arm-none-eabi/9.2.1/thumb/v7-m/nofp/crtn.o
START GROUP
LOAD /home/jerryneedell/Microchip/SoftConsole-v6.4/arm-none-eabi-gcc/bin/../lib/gcc/arm-none-eabi/9.2.1/../../../../arm-none-eabi/lib/thumb/v7-m/nofp/libc.a
LOAD /home/jerryneedell/Microchip/SoftConsole-v6.4/arm-none-eabi-gcc/bin/../lib/gcc/arm-none-eabi/9.2.1/thumb/v7-m/nofp/libgcc.a
LOAD /home/jerryneedell/Microchip/SoftConsole-v6.4/arm-none-eabi-gcc/bin/../lib/gcc/arm-none-eabi/9.2.1/../../../../arm-none-eabi/lib/thumb/v7-m/nofp/libm.a
END GROUP
                0x0000000000000000                __DYNAMIC = 0x0
                0x0000000020000000                RAM_START_ADDRESS = 0x20000000
                0x0000000000010000                RAM_SIZE = 0x10000
                0x0000000000001000                MAIN_STACK_SIZE = 0x1000
                0x0000000000001000                MIN_SIZE_HEAP = 0x1000
                0x0000000020010000                PROVIDE (__main_stack_start = (RAM_START_ADDRESS + RAM_SIZE))
                [!provide]                        PROVIDE (__process_stack_start = (__main_stack_start - MAIN_STACK_SIZE))
                0x0000000020010000                PROVIDE (_estack = __main_stack_start)
                0x0000000000000000                PROVIDE (__mirrored_nvm = 0x0)
                0x0000000000000000                PROVIDE (__smartfusion2_memory_remap = 0x0)

.vector_table   0x0000000000000000      0x190
                0x0000000000000000                __vector_table_load = LOADADDR (.vector_table)
                0x0000000000000000                __vector_table_start = .
                0x0000000000000000                __vector_table_vma_base_address = .
 *(.isr_vector)
 .isr_vector    0x0000000000000000      0x190 ./CMSIS/startup_gcc/startup_m2sxxx.o
                0x0000000000000000                g_pfnVectors
                0x0000000000000190                . = ALIGN (0x10)
                0x0000000000000190                _evector_table = .

.boot_code      0x0000000000000190      0x320
 *(.boot_code)
 .boot_code     0x0000000000000190      0x31c ./CMSIS/startup_gcc/startup_m2sxxx.o
                0x0000000000000190                Reset_Handler
                0x000000000000037e                NMI_Handler
                0x0000000000000380                HardFault_Handler
                0x0000000000000382                MemManage_Handler
                0x0000000000000384                BusFault_Handler
                0x0000000000000386                UsageFault_Handler
                0x000000000000038a                DebugMon_Handler
                0x0000000000000390                WdogWakeup_IRQHandler
                0x0000000000000392                RTC_Wakeup_IRQHandler
                0x0000000000000398                I2C0_IRQHandler
                0x000000000000039a                I2C0_SMBAlert_IRQHandler
                0x000000000000039c                I2C0_SMBus_IRQHandler
                0x000000000000039e                I2C1_IRQHandler
                0x00000000000003a0                I2C1_SMBAlert_IRQHandler
                0x00000000000003a2                I2C1_SMBus_IRQHandler
                0x00000000000003aa                DMA_IRQHandler
                0x00000000000003ac                Timer1_IRQHandler
                0x00000000000003ae                Timer2_IRQHandler
                0x00000000000003b0                CAN_IRQHandler
                0x00000000000003b2                ENVM0_IRQHandler
                0x00000000000003b4                ENVM1_IRQHandler
                0x00000000000003b8                USB_IRQHandler
                0x00000000000003ba                USB_DMA_IRQHandler
                0x00000000000003bc                PLL_Lock_IRQHandler
                0x00000000000003be                PLL_LockLost_IRQHandler
                0x00000000000003c0                CommSwitchError_IRQHandler
                0x00000000000003c2                CacheError_IRQHandler
                0x00000000000003c4                DDR_IRQHandler
                0x00000000000003c6                HPDMA_Complete_IRQHandler
                0x00000000000003c8                HPDMA_Error_IRQHandler
                0x00000000000003ca                ECC_Error_IRQHandler
                0x00000000000003cc                MDDR_IOCalib_IRQHandler
                0x00000000000003ce                FAB_PLL_Lock_IRQHandler
                0x00000000000003d0                FAB_PLL_LockLost_IRQHandler
                0x00000000000003d2                FIC64_IRQHandler
                0x00000000000003d4                FabricIrq0_IRQHandler
                0x00000000000003d6                FabricIrq1_IRQHandler
                0x00000000000003d8                FabricIrq2_IRQHandler
                0x00000000000003da                FabricIrq3_IRQHandler
                0x00000000000003dc                FabricIrq4_IRQHandler
                0x00000000000003de                FabricIrq5_IRQHandler
                0x00000000000003e0                FabricIrq6_IRQHandler
                0x00000000000003e2                FabricIrq7_IRQHandler
                0x00000000000003e4                FabricIrq8_IRQHandler
                0x00000000000003e6                FabricIrq9_IRQHandler
                0x00000000000003e8                FabricIrq10_IRQHandler
                0x00000000000003ea                FabricIrq11_IRQHandler
                0x00000000000003ec                FabricIrq12_IRQHandler
                0x00000000000003ee                FabricIrq13_IRQHandler
                0x00000000000003f0                FabricIrq14_IRQHandler
                0x00000000000003f2                FabricIrq15_IRQHandler
                0x00000000000003f4                GPIO0_IRQHandler
                0x00000000000003f6                GPIO1_IRQHandler
                0x00000000000003f8                GPIO2_IRQHandler
                0x00000000000003fa                GPIO3_IRQHandler
                0x00000000000003fc                GPIO4_IRQHandler
                0x00000000000003fe                GPIO5_IRQHandler
                0x0000000000000400                GPIO6_IRQHandler
                0x0000000000000402                GPIO7_IRQHandler
                0x0000000000000404                GPIO8_IRQHandler
                0x0000000000000406                GPIO9_IRQHandler
                0x0000000000000408                GPIO10_IRQHandler
                0x000000000000040a                GPIO11_IRQHandler
                0x000000000000040c                GPIO12_IRQHandler
                0x000000000000040e                GPIO13_IRQHandler
                0x0000000000000410                GPIO14_IRQHandler
                0x0000000000000412                GPIO15_IRQHandler
                0x0000000000000414                GPIO16_IRQHandler
                0x0000000000000416                GPIO17_IRQHandler
                0x0000000000000418                GPIO18_IRQHandler
                0x000000000000041a                GPIO19_IRQHandler
                0x000000000000041c                GPIO20_IRQHandler
                0x000000000000041e                GPIO21_IRQHandler
                0x0000000000000420                GPIO22_IRQHandler
                0x0000000000000422                GPIO23_IRQHandler
                0x0000000000000424                GPIO24_IRQHandler
                0x0000000000000426                GPIO25_IRQHandler
                0x0000000000000428                GPIO26_IRQHandler
                0x000000000000042a                GPIO27_IRQHandler
                0x000000000000042c                GPIO28_IRQHandler
                0x000000000000042e                GPIO29_IRQHandler
                0x0000000000000430                GPIO30_IRQHandler
                0x0000000000000432                GPIO31_IRQHandler
                0x00000000000004b0                . = ALIGN (0x10)
 *fill*         0x00000000000004ac        0x4 

.text           0x00000000000004b0    0x1b920
 CREATE_OBJECT_SYMBOLS
                0x00000000000004b0                __text_load = LOADADDR (.text)
                0x00000000000004b0                __text_start = .
 *(.text .text.* .gnu.linkonce.t.*)
 .text.__do_global_dtors_aux
                0x00000000000004b0       0x24 /home/jerryneedell/Microchip/SoftConsole-v6.4/arm-none-eabi-gcc/bin/../lib/gcc/arm-none-eabi/9.2.1/thumb/v7-m/nofp/crtbegin.o
 .text.frame_dummy
                0x00000000000004d4       0x1c /home/jerryneedell/Microchip/SoftConsole-v6.4/arm-none-eabi-gcc/bin/../lib/gcc/arm-none-eabi/9.2.1/thumb/v7-m/nofp/crtbegin.o
 .text.sys_mbox_new
                0x00000000000004f0       0x12 ./lwip-1.4.1/port/FreeRTOS/M2SXXX/sys_arch.o
                0x00000000000004f0                sys_mbox_new
 .text.sys_mbox_free
                0x0000000000000502       0x12 ./lwip-1.4.1/port/FreeRTOS/M2SXXX/sys_arch.o
                0x0000000000000502                sys_mbox_free
 .text.sys_mbox_valid
                0x0000000000000514        0xa ./lwip-1.4.1/port/FreeRTOS/M2SXXX/sys_arch.o
                0x0000000000000514                sys_mbox_valid
 .text.sys_mbox_set_invalid
                0x000000000000051e        0x6 ./lwip-1.4.1/port/FreeRTOS/M2SXXX/sys_arch.o
                0x000000000000051e                sys_mbox_set_invalid
 .text.sys_mbox_post
                0x0000000000000524       0x22 ./lwip-1.4.1/port/FreeRTOS/M2SXXX/sys_arch.o
                0x0000000000000524                sys_mbox_post
 *fill*         0x0000000000000546        0x2 
 .text.sys_mbox_trypost
                0x0000000000000548       0x48 ./lwip-1.4.1/port/FreeRTOS/M2SXXX/sys_arch.o
                0x0000000000000548                sys_mbox_trypost
 .text.sys_arch_mbox_fetch
                0x0000000000000590       0x62 ./lwip-1.4.1/port/FreeRTOS/M2SXXX/sys_arch.o
                0x0000000000000590                sys_arch_mbox_fetch
 .text.sys_arch_mbox_tryfetch
                0x00000000000005f2       0x22 ./lwip-1.4.1/port/FreeRTOS/M2SXXX/sys_arch.o
                0x00000000000005f2                sys_arch_mbox_tryfetch
 .text.sys_sem_new
                0x0000000000000614       0x38 ./lwip-1.4.1/port/FreeRTOS/M2SXXX/sys_arch.o
                0x0000000000000614                sys_sem_new
 .text.sys_arch_sem_wait
                0x000000000000064c       0x4a ./lwip-1.4.1/port/FreeRTOS/M2SXXX/sys_arch.o
                0x000000000000064c                sys_arch_sem_wait
 .text.sys_sem_signal
                0x0000000000000696       0x10 ./lwip-1.4.1/port/FreeRTOS/M2SXXX/sys_arch.o
                0x0000000000000696                sys_sem_signal
 .text.sys_sem_free
                0x00000000000006a6        0xa ./lwip-1.4.1/port/FreeRTOS/M2SXXX/sys_arch.o
                0x00000000000006a6                sys_sem_free
 .text.sys_sem_valid
                0x00000000000006b0        0x4 ./lwip-1.4.1/port/FreeRTOS/M2SXXX/sys_arch.o
                0x00000000000006b0                sys_sem_valid
 .text.sys_sem_set_invalid
                0x00000000000006b4        0x2 ./lwip-1.4.1/port/FreeRTOS/M2SXXX/sys_arch.o
                0x00000000000006b4                sys_sem_set_invalid
 .text.sys_init
                0x00000000000006b6        0x2 ./lwip-1.4.1/port/FreeRTOS/M2SXXX/sys_arch.o
                0x00000000000006b6                sys_init
 .text.sys_thread_new
                0x00000000000006b8       0x2e ./lwip-1.4.1/port/FreeRTOS/M2SXXX/sys_arch.o
                0x00000000000006b8                sys_thread_new
 .text.sys_arch_protect
                0x00000000000006e6        0xa ./lwip-1.4.1/port/FreeRTOS/M2SXXX/sys_arch.o
                0x00000000000006e6                sys_arch_protect
 .text.sys_arch_unprotect
                0x00000000000006f0        0x8 ./lwip-1.4.1/port/FreeRTOS/M2SXXX/sys_arch.o
                0x00000000000006f0                sys_arch_unprotect
 .text.sys_arch_random
                0x00000000000006f8        0x8 ./lwip-1.4.1/port/FreeRTOS/M2SXXX/sys_arch.o
                0x00000000000006f8                sys_arch_random
 .text.etharp_free_entry
                0x0000000000000700       0x34 ./lwip-1.4.1/netif/etharp.o
 .text.etharp_find_entry
                0x0000000000000734      0x20c ./lwip-1.4.1/netif/etharp.o
 .text.etharp_send_ip
                0x0000000000000940       0x6c ./lwip-1.4.1/netif/etharp.o
 .text.etharp_tmr
                0x00000000000009ac       0x40 ./lwip-1.4.1/netif/etharp.o
                0x00000000000009ac                etharp_tmr
 .text.etharp_cleanup_netif
                0x00000000000009ec       0x2c ./lwip-1.4.1/netif/etharp.o
                0x00000000000009ec                etharp_cleanup_netif
 .text.etharp_request
                0x0000000000000a18      0x160 ./lwip-1.4.1/netif/etharp.o
                0x0000000000000a18                etharp_request
 .text.etharp_output_to_arp_index
                0x0000000000000b78       0xbc ./lwip-1.4.1/netif/etharp.o
 .text.etharp_query
                0x0000000000000c34      0x1a8 ./lwip-1.4.1/netif/etharp.o
                0x0000000000000c34                etharp_query
 .text.etharp_output
                0x0000000000000ddc      0x1d4 ./lwip-1.4.1/netif/etharp.o
                0x0000000000000ddc                etharp_output
 .text.ethernet_input
                0x0000000000000fb0      0x290 ./lwip-1.4.1/netif/etharp.o
                0x0000000000000fb0                ethernet_input
 .text.packet_tx_complete_handler
                0x0000000000001240        0x6 ./lwip-1.4.1/netif/m2sxxx_ethernetif.o
 *fill*         0x0000000000001246        0x2 
 .text.low_level_output
                0x0000000000001248       0x64 ./lwip-1.4.1/netif/m2sxxx_ethernetif.o
 .text.mac_rx_callback
                0x00000000000012ac      0x134 ./lwip-1.4.1/netif/m2sxxx_ethernetif.o
                0x00000000000012ac                mac_rx_callback
 .text.ethernetif_init
                0x00000000000013e0       0xf4 ./lwip-1.4.1/netif/m2sxxx_ethernetif.o
                0x00000000000013e0                ethernetif_init
 .text.ethernetif_tick
                0x00000000000014d4       0x20 ./lwip-1.4.1/netif/m2sxxx_ethernetif.o
                0x00000000000014d4                ethernetif_tick
 .text.read_mac_address
                0x00000000000014f4       0x1c ./lwip-1.4.1/netif/m2sxxx_ethernetif.o
                0x00000000000014f4                read_mac_address
 .text.icmp_send_response
                0x0000000000001510       0xd0 ./lwip-1.4.1/core/ipv4/icmp.o
 .text.icmp_input
                0x00000000000015e0      0x2bc ./lwip-1.4.1/core/ipv4/icmp.o
                0x00000000000015e0                icmp_input
 .text.icmp_dest_unreach
                0x000000000000189c        0xc ./lwip-1.4.1/core/ipv4/icmp.o
                0x000000000000189c                icmp_dest_unreach
 .text.icmp_time_exceeded
                0x00000000000018a8        0xc ./lwip-1.4.1/core/ipv4/icmp.o
                0x00000000000018a8                icmp_time_exceeded
 .text.igmp_delaying_member
                0x00000000000018b4       0x3c ./lwip-1.4.1/core/ipv4/igmp.o
 .text.igmp_send
                0x00000000000018f0       0xe4 ./lwip-1.4.1/core/ipv4/igmp.o
 .text.igmp_init
                0x00000000000019d4       0x1c ./lwip-1.4.1/core/ipv4/igmp.o
                0x00000000000019d4                igmp_init
 .text.igmp_report_groups
                0x00000000000019f0       0x28 ./lwip-1.4.1/core/ipv4/igmp.o
                0x00000000000019f0                igmp_report_groups
 .text.igmp_lookfor_group
                0x0000000000001a18       0x38 ./lwip-1.4.1/core/ipv4/igmp.o
                0x0000000000001a18                igmp_lookfor_group
 .text.igmp_lookup_group
                0x0000000000001a50       0x44 ./lwip-1.4.1/core/ipv4/igmp.o
 .text.igmp_start
                0x0000000000001a94       0x34 ./lwip-1.4.1/core/ipv4/igmp.o
                0x0000000000001a94                igmp_start
 .text.igmp_input
                0x0000000000001ac8       0xec ./lwip-1.4.1/core/ipv4/igmp.o
                0x0000000000001ac8                igmp_input
 .text.igmp_tmr
                0x0000000000001bb4       0x38 ./lwip-1.4.1/core/ipv4/igmp.o
                0x0000000000001bb4                igmp_tmr
 .text.lwip_standard_chksum
                0x0000000000001bec       0x90 ./lwip-1.4.1/core/ipv4/inet_chksum.o
 .text.inet_chksum_pseudo
                0x0000000000001c7c       0x92 ./lwip-1.4.1/core/ipv4/inet_chksum.o
                0x0000000000001c7c                inet_chksum_pseudo
 .text.inet_chksum
                0x0000000000001d0e        0xc ./lwip-1.4.1/core/ipv4/inet_chksum.o
                0x0000000000001d0e                inet_chksum
 .text.inet_chksum_pbuf
                0x0000000000001d1a       0x50 ./lwip-1.4.1/core/ipv4/inet_chksum.o
                0x0000000000001d1a                inet_chksum_pbuf
 *fill*         0x0000000000001d6a        0x2 
 .text.ip_route
                0x0000000000001d6c       0x44 ./lwip-1.4.1/core/ipv4/ip.o
                0x0000000000001d6c                ip_route
 .text.ip_input
                0x0000000000001db0      0x1fc ./lwip-1.4.1/core/ipv4/ip.o
                0x0000000000001db0                ip_input
 .text.ip_output_if_opt
                0x0000000000001fac      0x1d0 ./lwip-1.4.1/core/ipv4/ip.o
                0x0000000000001fac                ip_output_if_opt
 .text.ip_output_if
                0x000000000000217c       0x22 ./lwip-1.4.1/core/ipv4/ip.o
                0x000000000000217c                ip_output_if
 *fill*         0x000000000000219e        0x2 
 .text.ip_output
                0x00000000000021a0       0x80 ./lwip-1.4.1/core/ipv4/ip.o
                0x00000000000021a0                ip_output
 .text.ip4_addr_isbroadcast
                0x0000000000002220       0x3e ./lwip-1.4.1/core/ipv4/ip_addr.o
                0x0000000000002220                ip4_addr_isbroadcast
 *fill*         0x000000000000225e        0x2 
 .text.ip_reass_dequeue_datagram
                0x0000000000002260       0x64 ./lwip-1.4.1/core/ipv4/ip_frag.o
 .text.ip_reass_free_complete_datagram
                0x00000000000022c4      0x1a0 ./lwip-1.4.1/core/ipv4/ip_frag.o
 .text.ip_reass_remove_oldest_datagram
                0x0000000000002464       0x74 ./lwip-1.4.1/core/ipv4/ip_frag.o
 .text.ip_frag_free_pbuf_custom_ref
                0x00000000000024d8       0x4c ./lwip-1.4.1/core/ipv4/ip_frag.o
 .text.ipfrag_free_pbuf_custom
                0x0000000000002524       0x54 ./lwip-1.4.1/core/ipv4/ip_frag.o
 .text.ip_reass_tmr
                0x0000000000002578       0x30 ./lwip-1.4.1/core/ipv4/ip_frag.o
                0x0000000000002578                ip_reass_tmr
 .text.ip_reass
                0x00000000000025a8      0x3a8 ./lwip-1.4.1/core/ipv4/ip_frag.o
                0x00000000000025a8                ip_reass
 .text.ip_frag  0x0000000000002950      0x1ec ./lwip-1.4.1/core/ipv4/ip_frag.o
                0x0000000000002950                ip_frag
 .text.lwip_htons
                0x0000000000002b3c        0xa ./lwip-1.4.1/core/def.o
                0x0000000000002b3c                lwip_htons
 .text.lwip_ntohs
                0x0000000000002b46        0xa ./lwip-1.4.1/core/def.o
                0x0000000000002b46                lwip_ntohs
 .text.lwip_htonl
                0x0000000000002b50       0x18 ./lwip-1.4.1/core/def.o
                0x0000000000002b50                lwip_htonl
 .text.lwip_ntohl
                0x0000000000002b68        0x8 ./lwip-1.4.1/core/def.o
                0x0000000000002b68                lwip_ntohl
 .text.dhcp_set_state
                0x0000000000002b70       0x10 ./lwip-1.4.1/core/dhcp.o
 .text.dhcp_option
                0x0000000000002b80       0x68 ./lwip-1.4.1/core/dhcp.o
 .text.dhcp_option_byte
                0x0000000000002be8       0x58 ./lwip-1.4.1/core/dhcp.o
 .text.dhcp_option_short
                0x0000000000002c40       0x68 ./lwip-1.4.1/core/dhcp.o
 .text.dhcp_option_long
                0x0000000000002ca8       0x88 ./lwip-1.4.1/core/dhcp.o
 .text.dhcp_option_trailer
                0x0000000000002d30       0xf4 ./lwip-1.4.1/core/dhcp.o
 .text.dhcp_create_msg
                0x0000000000002e24      0x268 ./lwip-1.4.1/core/dhcp.o
 .text.dhcp_delete_msg
                0x000000000000308c       0xe0 ./lwip-1.4.1/core/dhcp.o
 .text.dhcp_rebind
                0x000000000000316c       0x98 ./lwip-1.4.1/core/dhcp.o
 .text.dhcp_discover
                0x0000000000003204       0xc0 ./lwip-1.4.1/core/dhcp.o
 .text.dhcp_select
                0x00000000000032c4       0xec ./lwip-1.4.1/core/dhcp.o
 .text.dhcp_reboot
                0x00000000000033b0       0xb0 ./lwip-1.4.1/core/dhcp.o
 .text.dhcp_bind
                0x0000000000003460      0x180 ./lwip-1.4.1/core/dhcp.o
 .text.dhcp_recv
                0x00000000000035e0      0x8d4 ./lwip-1.4.1/core/dhcp.o
 .text.dhcp_renew
                0x0000000000003eb4       0x94 ./lwip-1.4.1/core/dhcp.o
                0x0000000000003eb4                dhcp_renew
 .text.dhcp_coarse_tmr
                0x0000000000003f48       0x60 ./lwip-1.4.1/core/dhcp.o
                0x0000000000003f48                dhcp_coarse_tmr
 .text.dhcp_release
                0x0000000000003fa8       0xb8 ./lwip-1.4.1/core/dhcp.o
                0x0000000000003fa8                dhcp_release
 .text.dhcp_fine_tmr
                0x0000000000004060       0xac ./lwip-1.4.1/core/dhcp.o
                0x0000000000004060                dhcp_fine_tmr
 .text.dhcp_stop
                0x000000000000410c       0xac ./lwip-1.4.1/core/dhcp.o
                0x000000000000410c                dhcp_stop
 .text.dhcp_start
                0x00000000000041b8      0x180 ./lwip-1.4.1/core/dhcp.o
                0x00000000000041b8                dhcp_start
 .text.lwip_init
                0x0000000000004338       0x28 ./lwip-1.4.1/core/init.o
                0x0000000000004338                lwip_init
 .text.sys_timeout
                0x0000000000004360       0xa0 ./lwip-1.4.1/core/lwip_timers.o
                0x0000000000004360                sys_timeout
 .text.tcp_timer_needed
                0x0000000000004400       0x3c ./lwip-1.4.1/core/lwip_timers.o
                0x0000000000004400                tcp_timer_needed
 .text.tcpip_tcp_timer
                0x000000000000443c       0x38 ./lwip-1.4.1/core/lwip_timers.o
 .text.sys_timeouts_init
                0x0000000000004474       0x54 ./lwip-1.4.1/core/lwip_timers.o
                0x0000000000004474                sys_timeouts_init
 .text.igmp_timer
                0x00000000000044c8       0x18 ./lwip-1.4.1/core/lwip_timers.o
 .text.dhcp_timer_fine
                0x00000000000044e0       0x18 ./lwip-1.4.1/core/lwip_timers.o
 .text.dhcp_timer_coarse
                0x00000000000044f8       0x18 ./lwip-1.4.1/core/lwip_timers.o
 .text.arp_timer
                0x0000000000004510       0x18 ./lwip-1.4.1/core/lwip_timers.o
 .text.ip_reass_timer
                0x0000000000004528       0x18 ./lwip-1.4.1/core/lwip_timers.o
 .text.sys_untimeout
                0x0000000000004540       0x4c ./lwip-1.4.1/core/lwip_timers.o
                0x0000000000004540                sys_untimeout
 .text.sys_timeouts_mbox_fetch
                0x000000000000458c       0x6c ./lwip-1.4.1/core/lwip_timers.o
                0x000000000000458c                sys_timeouts_mbox_fetch
 .text.mem_init
                0x00000000000045f8       0x84 ./lwip-1.4.1/core/mem.o
                0x00000000000045f8                mem_init
 .text.mem_free
                0x000000000000467c      0x2ac ./lwip-1.4.1/core/mem.o
                0x000000000000467c                mem_free
 .text.mem_trim
                0x0000000000004928      0x18c ./lwip-1.4.1/core/mem.o
                0x0000000000004928                mem_trim
 .text.mem_malloc
                0x0000000000004ab4      0x1c0 ./lwip-1.4.1/core/mem.o
                0x0000000000004ab4                mem_malloc
 .text.memp_init
                0x0000000000004c74       0x78 ./lwip-1.4.1/core/memp.o
                0x0000000000004c74                memp_init
 .text.memp_malloc
                0x0000000000004cec       0xac ./lwip-1.4.1/core/memp.o
                0x0000000000004cec                memp_malloc
 .text.memp_free
                0x0000000000004d98       0xe0 ./lwip-1.4.1/core/memp.o
                0x0000000000004d98                memp_free
 .text.netif_init
                0x0000000000004e78        0x2 ./lwip-1.4.1/core/netif.o
                0x0000000000004e78                netif_init
 *fill*         0x0000000000004e7a        0x2 
 .text.netif_set_ipaddr
                0x0000000000004e7c       0x64 ./lwip-1.4.1/core/netif.o
                0x0000000000004e7c                netif_set_ipaddr
 .text.netif_set_addr
                0x0000000000004ee0       0x22 ./lwip-1.4.1/core/netif.o
                0x0000000000004ee0                netif_set_addr
 *fill*         0x0000000000004f02        0x2 
 .text.netif_add
                0x0000000000004f04       0xa8 ./lwip-1.4.1/core/netif.o
                0x0000000000004f04                netif_add
 .text.netif_set_gw
                0x0000000000004fac        0xc ./lwip-1.4.1/core/netif.o
                0x0000000000004fac                netif_set_gw
 .text.netif_set_netmask
                0x0000000000004fb8        0xc ./lwip-1.4.1/core/netif.o
                0x0000000000004fb8                netif_set_netmask
 .text.netif_set_default
                0x0000000000004fc4        0xc ./lwip-1.4.1/core/netif.o
                0x0000000000004fc4                netif_set_default
 .text.netif_set_up
                0x0000000000004fd0       0x3e ./lwip-1.4.1/core/netif.o
                0x0000000000004fd0                netif_set_up
 .text.netif_set_down
                0x000000000000500e       0x22 ./lwip-1.4.1/core/netif.o
                0x000000000000500e                netif_set_down
 .text.pbuf_pool_is_empty
                0x0000000000005030       0x40 ./lwip-1.4.1/core/pbuf.o
 .text.pbuf_free_ooseq_callback
                0x0000000000005070       0x34 ./lwip-1.4.1/core/pbuf.o
 .text.pbuf_alloced_custom
                0x00000000000050a4       0x90 ./lwip-1.4.1/core/pbuf.o
                0x00000000000050a4                pbuf_alloced_custom
 .text.pbuf_header
                0x0000000000005134      0x130 ./lwip-1.4.1/core/pbuf.o
                0x0000000000005134                pbuf_header
 .text.pbuf_free
                0x0000000000005264      0x170 ./lwip-1.4.1/core/pbuf.o
                0x0000000000005264                pbuf_free
 .text.pbuf_alloc
                0x00000000000053d4      0x2a8 ./lwip-1.4.1/core/pbuf.o
                0x00000000000053d4                pbuf_alloc
 .text.pbuf_realloc
                0x000000000000567c      0x1a8 ./lwip-1.4.1/core/pbuf.o
                0x000000000000567c                pbuf_realloc
 .text.pbuf_clen
                0x0000000000005824       0x16 ./lwip-1.4.1/core/pbuf.o
                0x0000000000005824                pbuf_clen
 .text.pbuf_ref
                0x000000000000583a       0x18 ./lwip-1.4.1/core/pbuf.o
                0x000000000000583a                pbuf_ref
 *fill*         0x0000000000005852        0x2 
 .text.pbuf_cat
                0x0000000000005854      0x12c ./lwip-1.4.1/core/pbuf.o
                0x0000000000005854                pbuf_cat
 .text.pbuf_chain
                0x0000000000005980       0x10 ./lwip-1.4.1/core/pbuf.o
                0x0000000000005980                pbuf_chain
 .text.pbuf_copy
                0x0000000000005990      0x2a8 ./lwip-1.4.1/core/pbuf.o
                0x0000000000005990                pbuf_copy
 .text.pbuf_copy_partial
                0x0000000000005c38       0xe8 ./lwip-1.4.1/core/pbuf.o
                0x0000000000005c38                pbuf_copy_partial
 .text.raw_input
                0x0000000000005d20       0x78 ./lwip-1.4.1/core/raw.o
                0x0000000000005d20                raw_input
 .text.raw_bind
                0x0000000000005d98        0xe ./lwip-1.4.1/core/raw.o
                0x0000000000005d98                raw_bind
 .text.raw_recv
                0x0000000000005da6        0x6 ./lwip-1.4.1/core/raw.o
                0x0000000000005da6                raw_recv
 .text.raw_remove
                0x0000000000005dac       0x38 ./lwip-1.4.1/core/raw.o
                0x0000000000005dac                raw_remove
 .text.raw_new  0x0000000000005de4       0x34 ./lwip-1.4.1/core/raw.o
                0x0000000000005de4                raw_new
 .text.sys_msleep
                0x0000000000005e18       0x28 ./lwip-1.4.1/core/sys.o
                0x0000000000005e18                sys_msleep
 .text.tcp_accept_null
                0x0000000000005e40        0x6 ./lwip-1.4.1/core/tcp.o
 *fill*         0x0000000000005e46        0x2 
 .text.tcp_new_port
                0x0000000000005e48       0x5c ./lwip-1.4.1/core/tcp.o
 .text.tcp_init
                0x0000000000005ea4        0x2 ./lwip-1.4.1/core/tcp.o
                0x0000000000005ea4                tcp_init
 *fill*         0x0000000000005ea6        0x2 
 .text.tcp_bind
                0x0000000000005ea8       0xe8 ./lwip-1.4.1/core/tcp.o
                0x0000000000005ea8                tcp_bind
 .text.tcp_listen_with_backlog
                0x0000000000005f90      0x110 ./lwip-1.4.1/core/tcp.o
                0x0000000000005f90                tcp_listen_with_backlog
 .text.tcp_update_rcv_ann_wnd
                0x00000000000060a0       0x7c ./lwip-1.4.1/core/tcp.o
                0x00000000000060a0                tcp_update_rcv_ann_wnd
 .text.tcp_recved
                0x000000000000611c       0xc4 ./lwip-1.4.1/core/tcp.o
                0x000000000000611c                tcp_recved
 .text.tcp_seg_free
                0x00000000000061e0       0x1a ./lwip-1.4.1/core/tcp.o
                0x00000000000061e0                tcp_seg_free
 .text.tcp_segs_free
                0x00000000000061fa       0x14 ./lwip-1.4.1/core/tcp.o
                0x00000000000061fa                tcp_segs_free
 .text.tcp_seg_copy
                0x000000000000620e       0x28 ./lwip-1.4.1/core/tcp.o
                0x000000000000620e                tcp_seg_copy
 .text.tcp_arg  0x0000000000006236        0x4 ./lwip-1.4.1/core/tcp.o
                0x0000000000006236                tcp_arg
 *fill*         0x000000000000623a        0x2 
 .text.tcp_recv
                0x000000000000623c       0x54 ./lwip-1.4.1/core/tcp.o
                0x000000000000623c                tcp_recv
 .text.tcp_sent
                0x0000000000006290       0x50 ./lwip-1.4.1/core/tcp.o
                0x0000000000006290                tcp_sent
 .text.tcp_err  0x00000000000062e0       0x54 ./lwip-1.4.1/core/tcp.o
                0x00000000000062e0                tcp_err
 .text.tcp_accept
                0x0000000000006334        0x4 ./lwip-1.4.1/core/tcp.o
                0x0000000000006334                tcp_accept
 .text.tcp_poll
                0x0000000000006338       0x5c ./lwip-1.4.1/core/tcp.o
                0x0000000000006338                tcp_poll
 .text.tcp_pcb_purge
                0x0000000000006394       0x40 ./lwip-1.4.1/core/tcp.o
                0x0000000000006394                tcp_pcb_purge
 .text.tcp_slowtmr
                0x00000000000063d4      0x57c ./lwip-1.4.1/core/tcp.o
                0x00000000000063d4                tcp_slowtmr
 .text.tcp_pcb_remove
                0x0000000000006950      0x134 ./lwip-1.4.1/core/tcp.o
                0x0000000000006950                tcp_pcb_remove
 .text.tcp_close_shutdown
                0x0000000000006a84      0x1d8 ./lwip-1.4.1/core/tcp.o
 .text.tcp_close
                0x0000000000006c5c       0x18 ./lwip-1.4.1/core/tcp.o
                0x0000000000006c5c                tcp_close
 .text.tcp_recv_null
                0x0000000000006c74       0x24 ./lwip-1.4.1/core/tcp.o
                0x0000000000006c74                tcp_recv_null
 .text.tcp_process_refused_data
                0x0000000000006c98       0x68 ./lwip-1.4.1/core/tcp.o
                0x0000000000006c98                tcp_process_refused_data
 .text.tcp_fasttmr
                0x0000000000006d00       0x74 ./lwip-1.4.1/core/tcp.o
                0x0000000000006d00                tcp_fasttmr
 .text.tcp_tmr  0x0000000000006d74       0x24 ./lwip-1.4.1/core/tcp.o
                0x0000000000006d74                tcp_tmr
 .text.tcp_shutdown
                0x0000000000006d98       0x5c ./lwip-1.4.1/core/tcp.o
                0x0000000000006d98                tcp_shutdown
 .text.tcp_abandon
                0x0000000000006df4       0xd8 ./lwip-1.4.1/core/tcp.o
                0x0000000000006df4                tcp_abandon
 .text.tcp_abort
                0x0000000000006ecc        0xa ./lwip-1.4.1/core/tcp.o
                0x0000000000006ecc                tcp_abort
 *fill*         0x0000000000006ed6        0x2 
 .text.tcp_next_iss
                0x0000000000006ed8       0x18 ./lwip-1.4.1/core/tcp.o
                0x0000000000006ed8                tcp_next_iss
 .text.tcp_alloc
                0x0000000000006ef0      0x118 ./lwip-1.4.1/core/tcp.o
                0x0000000000006ef0                tcp_alloc
 .text.tcp_new  0x0000000000007008        0xa ./lwip-1.4.1/core/tcp.o
                0x0000000000007008                tcp_new
 .text.tcp_eff_send_mss
                0x0000000000007012       0x1e ./lwip-1.4.1/core/tcp.o
                0x0000000000007012                tcp_eff_send_mss
 .text.tcp_parseopt
                0x0000000000007030       0x8c ./lwip-1.4.1/core/tcp_in.o
 .text.tcp_oos_insert_segment
                0x00000000000070bc       0x94 ./lwip-1.4.1/core/tcp_in.o
 .text.tcp_receive
                0x0000000000007150      0xc9c ./lwip-1.4.1/core/tcp_in.o
 .text.tcp_input
                0x0000000000007dec      0xc7c ./lwip-1.4.1/core/tcp_in.o
                0x0000000000007dec                tcp_input
 .text.tcp_pbuf_prealloc
                0x0000000000008a68       0xa8 ./lwip-1.4.1/core/tcp_out.o
 .text.tcp_create_segment
                0x0000000000008b10       0x96 ./lwip-1.4.1/core/tcp_out.o
 *fill*         0x0000000000008ba6        0x2 
 .text.tcp_output_alloc_header
                0x0000000000008ba8       0xb4 ./lwip-1.4.1/core/tcp_out.o
 .text.tcp_write
                0x0000000000008c5c      0x700 ./lwip-1.4.1/core/tcp_out.o
                0x0000000000008c5c                tcp_write
 .text.tcp_enqueue_flags
                0x000000000000935c      0x224 ./lwip-1.4.1/core/tcp_out.o
                0x000000000000935c                tcp_enqueue_flags
 .text.tcp_send_fin
                0x0000000000009580       0x44 ./lwip-1.4.1/core/tcp_out.o
                0x0000000000009580                tcp_send_fin
 .text.tcp_send_empty_ack
                0x00000000000095c4       0x5e ./lwip-1.4.1/core/tcp_out.o
                0x00000000000095c4                tcp_send_empty_ack
 *fill*         0x0000000000009622        0x2 
 .text.tcp_output
                0x0000000000009624      0x31c ./lwip-1.4.1/core/tcp_out.o
                0x0000000000009624                tcp_output
 .text.tcp_rst  0x0000000000009940       0xcc ./lwip-1.4.1/core/tcp_out.o
                0x0000000000009940                tcp_rst
 .text.tcp_rexmit_rto
                0x0000000000009a0c       0x2c ./lwip-1.4.1/core/tcp_out.o
                0x0000000000009a0c                tcp_rexmit_rto
 .text.tcp_rexmit
                0x0000000000009a38       0x54 ./lwip-1.4.1/core/tcp_out.o
                0x0000000000009a38                tcp_rexmit
 .text.tcp_rexmit_fast
                0x0000000000009a8c       0x52 ./lwip-1.4.1/core/tcp_out.o
                0x0000000000009a8c                tcp_rexmit_fast
 .text.tcp_keepalive
                0x0000000000009ade       0x50 ./lwip-1.4.1/core/tcp_out.o
                0x0000000000009ade                tcp_keepalive
 .text.tcp_zero_window_probe
                0x0000000000009b2e       0xac ./lwip-1.4.1/core/tcp_out.o
                0x0000000000009b2e                tcp_zero_window_probe
 .text.udp_init
                0x0000000000009bda        0x2 ./lwip-1.4.1/core/udp.o
                0x0000000000009bda                udp_init
 .text.udp_input
                0x0000000000009bdc      0x23c ./lwip-1.4.1/core/udp.o
                0x0000000000009bdc                udp_input
 .text.udp_bind
                0x0000000000009e18      0x134 ./lwip-1.4.1/core/udp.o
                0x0000000000009e18                udp_bind
 .text.udp_sendto_if
                0x0000000000009f4c      0x150 ./lwip-1.4.1/core/udp.o
                0x0000000000009f4c                udp_sendto_if
 .text.udp_connect
                0x000000000000a09c       0x58 ./lwip-1.4.1/core/udp.o
                0x000000000000a09c                udp_connect
 .text.udp_recv
                0x000000000000a0f4        0x6 ./lwip-1.4.1/core/udp.o
                0x000000000000a0f4                udp_recv
 *fill*         0x000000000000a0fa        0x2 
 .text.udp_remove
                0x000000000000a0fc       0x38 ./lwip-1.4.1/core/udp.o
                0x000000000000a0fc                udp_remove
 .text.udp_new  0x000000000000a134       0x1c ./lwip-1.4.1/core/udp.o
                0x000000000000a134                udp_new
 .text.netconn_close_shutdown
                0x000000000000a150       0x7c ./lwip-1.4.1/api/api_lib.o
 .text.netconn_recv_data
                0x000000000000a1cc      0x1e8 ./lwip-1.4.1/api/api_lib.o
 .text.netconn_new_with_proto_and_callback
                0x000000000000a3b4      0x15c ./lwip-1.4.1/api/api_lib.o
                0x000000000000a3b4                netconn_new_with_proto_and_callback
 .text.netconn_delete
                0x000000000000a510       0x28 ./lwip-1.4.1/api/api_lib.o
                0x000000000000a510                netconn_delete
 .text.netconn_bind
                0x000000000000a538       0x7c ./lwip-1.4.1/api/api_lib.o
                0x000000000000a538                netconn_bind
 .text.netconn_listen_with_backlog
                0x000000000000a5b4       0x78 ./lwip-1.4.1/api/api_lib.o
                0x000000000000a5b4                netconn_listen_with_backlog
 .text.netconn_accept
                0x000000000000a62c      0x150 ./lwip-1.4.1/api/api_lib.o
                0x000000000000a62c                netconn_accept
 .text.netconn_recv
                0x000000000000a77c      0x194 ./lwip-1.4.1/api/api_lib.o
                0x000000000000a77c                netconn_recv
 .text.netconn_write_partly
                0x000000000000a910      0x11c ./lwip-1.4.1/api/api_lib.o
                0x000000000000a910                netconn_write_partly
 .text.netconn_close
                0x000000000000aa2c        0xa ./lwip-1.4.1/api/api_lib.o
                0x000000000000aa2c                netconn_close
 *fill*         0x000000000000aa36        0x2 
 .text.recv_udp
                0x000000000000aa38      0x13c ./lwip-1.4.1/api/api_msg.o
 .text.recv_raw
                0x000000000000ab74       0x94 ./lwip-1.4.1/api/api_msg.o
 .text.setup_tcp
                0x000000000000ac08       0x40 ./lwip-1.4.1/api/api_msg.o
 .text.err_tcp  0x000000000000ac48      0x160 ./lwip-1.4.1/api/api_msg.o
 .text.do_writemore
                0x000000000000ada8      0x27c ./lwip-1.4.1/api/api_msg.o
 .text.do_close_internal
                0x000000000000b024      0x2a0 ./lwip-1.4.1/api/api_msg.o
 .text.poll_tcp
                0x000000000000b2c4       0x98 ./lwip-1.4.1/api/api_msg.o
 .text.sent_tcp
                0x000000000000b35c       0x94 ./lwip-1.4.1/api/api_msg.o
 .text.recv_tcp
                0x000000000000b3f0      0x140 ./lwip-1.4.1/api/api_msg.o
 .text.do_newconn
                0x000000000000b530       0x94 ./lwip-1.4.1/api/api_msg.o
                0x000000000000b530                do_newconn
 .text.netconn_alloc
                0x000000000000b5c4       0x64 ./lwip-1.4.1/api/api_msg.o
                0x000000000000b5c4                netconn_alloc
 .text.netconn_free
                0x000000000000b628       0xec ./lwip-1.4.1/api/api_msg.o
                0x000000000000b628                netconn_free
 .text.netconn_drain
                0x000000000000b714       0xe4 ./lwip-1.4.1/api/api_msg.o
 .text.accept_function
                0x000000000000b7f8       0xa4 ./lwip-1.4.1/api/api_msg.o
 .text.do_delconn
                0x000000000000b89c      0x168 ./lwip-1.4.1/api/api_msg.o
                0x000000000000b89c                do_delconn
 .text.do_bind  0x000000000000ba04       0x5a ./lwip-1.4.1/api/api_msg.o
                0x000000000000ba04                do_bind
 *fill*         0x000000000000ba5e        0x2 
 .text.do_listen
                0x000000000000ba60       0xb8 ./lwip-1.4.1/api/api_msg.o
                0x000000000000ba60                do_listen
 .text.do_recv  0x000000000000bb18       0x3c ./lwip-1.4.1/api/api_msg.o
                0x000000000000bb18                do_recv
 .text.do_write
                0x000000000000bb54       0xe0 ./lwip-1.4.1/api/api_msg.o
                0x000000000000bb54                do_write
 .text.do_close
                0x000000000000bc34       0xe8 ./lwip-1.4.1/api/api_msg.o
                0x000000000000bc34                do_close
 .text.netbuf_delete
                0x000000000000bd1c       0x20 ./lwip-1.4.1/api/netbuf.o
                0x000000000000bd1c                netbuf_delete
 .text.netbuf_data
                0x000000000000bd3c       0xec ./lwip-1.4.1/api/netbuf.o
                0x000000000000bd3c                netbuf_data
 .text.lwip_socket_init
                0x000000000000be28        0x2 ./lwip-1.4.1/api/sockets.o
                0x000000000000be28                lwip_socket_init
 *fill*         0x000000000000be2a        0x2 
 .text.tcpip_thread
                0x000000000000be2c       0xf4 ./lwip-1.4.1/api/tcpip.o
 .text.tcpip_input
                0x000000000000bf20       0x4c ./lwip-1.4.1/api/tcpip.o
                0x000000000000bf20                tcpip_input
 .text.tcpip_callback_with_block
                0x000000000000bf6c       0x5c ./lwip-1.4.1/api/tcpip.o
                0x000000000000bf6c                tcpip_callback_with_block
 .text.tcpip_apimsg
                0x000000000000bfc8       0x3c ./lwip-1.4.1/api/tcpip.o
                0x000000000000bfc8                tcpip_apimsg
 .text.tcpip_init
                0x000000000000c004       0x84 ./lwip-1.4.1/api/tcpip.o
                0x000000000000c004                tcpip_init
 .text.MSS_UART_isr
                0x000000000000c088      0x1a0 ./drivers/mss_uart/mss_uart.o
 .text.default_tx_handler
                0x000000000000c228       0xa0 ./drivers/mss_uart/mss_uart.o
 .text.global_init
                0x000000000000c2c8      0x338 ./drivers/mss_uart/mss_uart.o
 .text.MSS_UART_init
                0x000000000000c600       0x7c ./drivers/mss_uart/mss_uart.o
                0x000000000000c600                MSS_UART_init
 .text.MSS_UART_polled_tx
                0x000000000000c67c       0x8c ./drivers/mss_uart/mss_uart.o
                0x000000000000c67c                MSS_UART_polled_tx
 .text.MSS_UART_tx_complete
                0x000000000000c708       0x34 ./drivers/mss_uart/mss_uart.o
                0x000000000000c708                MSS_UART_tx_complete
 .text.MSS_UART_get_rx
                0x000000000000c73c       0x84 ./drivers/mss_uart/mss_uart.o
                0x000000000000c73c                MSS_UART_get_rx
 .text.MSS_UART_enable_irq
                0x000000000000c7c0       0x88 ./drivers/mss_uart/mss_uart.o
                0x000000000000c7c0                MSS_UART_enable_irq
 .text.MSS_UART_disable_irq
                0x000000000000c848       0x74 ./drivers/mss_uart/mss_uart.o
                0x000000000000c848                MSS_UART_disable_irq
 .text.UART0_IRQHandler
                0x000000000000c8bc       0x1c ./drivers/mss_uart/mss_uart.o
                0x000000000000c8bc                UART0_IRQHandler
 .text.UART1_IRQHandler
                0x000000000000c8d8       0x1c ./drivers/mss_uart/mss_uart.o
                0x000000000000c8d8                UART1_IRQHandler
 .text.MSS_UART_set_tx_handler
                0x000000000000c8f4       0x84 ./drivers/mss_uart/mss_uart.o
                0x000000000000c8f4                MSS_UART_set_tx_handler
 .text.MSS_UART_fill_tx_fifo
                0x000000000000c978       0x70 ./drivers/mss_uart/mss_uart.o
                0x000000000000c978                MSS_UART_fill_tx_fifo
 .text.complete_request
                0x000000000000c9e8       0x28 ./drivers/mss_sys_services/mss_comblk.o
 .text.abort_current_cmd
                0x000000000000ca10       0x34 ./drivers/mss_sys_services/mss_comblk.o
 .text.fill_tx_fifo
                0x000000000000ca44       0x54 ./drivers/mss_sys_services/mss_comblk.o
 .text.process_sys_ctrl_command
                0x000000000000ca98       0x14 ./drivers/mss_sys_services/mss_comblk.o
 .text.ComBlk_IRQHandler
                0x000000000000caac      0x2b8 ./drivers/mss_sys_services/mss_comblk.o
                0x000000000000caac                ComBlk_IRQHandler
 .text.recover_from_rx_overflow
                0x000000000000cd64       0xe4 ./drivers/mss_spi/mss_spi.o
 .text.fill_slave_tx_fifo
                0x000000000000ce48       0x9c ./drivers/mss_spi/mss_spi.o
 .text.read_slave_rx_fifo
                0x000000000000cee4       0x76 ./drivers/mss_spi/mss_spi.o
 *fill*         0x000000000000cf5a        0x2 
 .text.mss_spi_isr
                0x000000000000cf5c      0x1b4 ./drivers/mss_spi/mss_spi.o
 .text.SPI0_IRQHandler
                0x000000000000d110       0x1c ./drivers/mss_spi/mss_spi.o
                0x000000000000d110                SPI0_IRQHandler
 .text.SPI1_IRQHandler
                0x000000000000d12c       0x1c ./drivers/mss_spi/mss_spi.o
                0x000000000000d12c                SPI1_IRQHandler
 .text.MSS_MAC_phy_init
                0x000000000000d148       0x3c ./drivers/mss_ethernet_mac/m88e1340_phy.o
                0x000000000000d148                MSS_MAC_phy_init
 .text.MSS_MAC_phy_set_link_speed
                0x000000000000d184       0x88 ./drivers/mss_ethernet_mac/m88e1340_phy.o
                0x000000000000d184                MSS_MAC_phy_set_link_speed
 .text.MSS_MAC_phy_autonegotiate
                0x000000000000d20c       0x60 ./drivers/mss_ethernet_mac/m88e1340_phy.o
                0x000000000000d20c                MSS_MAC_phy_autonegotiate
 .text.MSS_MAC_phy_get_link_status
                0x000000000000d26c       0x54 ./drivers/mss_ethernet_mac/m88e1340_phy.o
                0x000000000000d26c                MSS_MAC_phy_get_link_status
 .text.MSS_MAC_cfg_struct_def_init
                0x000000000000d2c0       0x6e ./drivers/mss_ethernet_mac/mss_ethernet_mac.o
                0x000000000000d2c0                MSS_MAC_cfg_struct_def_init
 *fill*         0x000000000000d32e        0x2 
 .text.MSS_MAC_write_phy_reg
                0x000000000000d330       0x38 ./drivers/mss_ethernet_mac/mss_ethernet_mac.o
                0x000000000000d330                MSS_MAC_write_phy_reg
 .text.MSS_MAC_read_phy_reg
                0x000000000000d368       0x7c ./drivers/mss_ethernet_mac/mss_ethernet_mac.o
                0x000000000000d368                MSS_MAC_read_phy_reg
 .text.MSS_MAC_init
                0x000000000000d3e4      0x4b8 ./drivers/mss_ethernet_mac/mss_ethernet_mac.o
                0x000000000000d3e4                MSS_MAC_init
 .text.MSS_MAC_get_link_status
                0x000000000000d89c      0x124 ./drivers/mss_ethernet_mac/mss_ethernet_mac.o
                0x000000000000d89c                MSS_MAC_get_link_status
 .text.MSS_MAC_read_stat
                0x000000000000d9c0       0x30 ./drivers/mss_ethernet_mac/mss_ethernet_mac.o
                0x000000000000d9c0                MSS_MAC_read_stat
 .text.MSS_MAC_clear_statistics
                0x000000000000d9f0       0x14 ./drivers/mss_ethernet_mac/mss_ethernet_mac.o
                0x000000000000d9f0                MSS_MAC_clear_statistics
 .text.MSS_MAC_receive_pkt
                0x000000000000da04       0xcc ./drivers/mss_ethernet_mac/mss_ethernet_mac.o
                0x000000000000da04                MSS_MAC_receive_pkt
 .text.MSS_MAC_send_pkt
                0x000000000000dad0       0xc0 ./drivers/mss_ethernet_mac/mss_ethernet_mac.o
                0x000000000000dad0                MSS_MAC_send_pkt
 .text.EthernetMAC_IRQHandler
                0x000000000000db90      0x110 ./drivers/mss_ethernet_mac/mss_ethernet_mac.o
                0x000000000000db90                EthernetMAC_IRQHandler
 .text.MSS_MAC_set_tx_callback
                0x000000000000dca0        0xc ./drivers/mss_ethernet_mac/mss_ethernet_mac.o
                0x000000000000dca0                MSS_MAC_set_tx_callback
 .text.MSS_MAC_set_rx_callback
                0x000000000000dcac        0xc ./drivers/mss_ethernet_mac/mss_ethernet_mac.o
                0x000000000000dcac                MSS_MAC_set_rx_callback
 .text.http_server_netconn_thread
                0x000000000000dcb8      0x7b0 ./WebServer/httpserver-netconn.o
                0x000000000000dcb8                http_server_netconn_thread
 .text.pvPortMalloc
                0x000000000000e468       0xc4 ./FreeRTOS/portable/MemMang/heap_2.o
                0x000000000000e468                pvPortMalloc
 .text.vPortFree
                0x000000000000e52c       0x40 ./FreeRTOS/portable/MemMang/heap_2.o
                0x000000000000e52c                vPortFree
 .text.xPortGetFreeHeapSize
                0x000000000000e56c        0xc ./FreeRTOS/portable/MemMang/heap_2.o
                0x000000000000e56c                xPortGetFreeHeapSize
 .text.pxPortInitialiseStack
                0x000000000000e578       0x1a ./FreeRTOS/portable/GCC/ARM_CM3/port.o
                0x000000000000e578                pxPortInitialiseStack
 *fill*         0x000000000000e592        0x2 
 .text.SVC_Handler
                0x000000000000e594       0x20 ./FreeRTOS/portable/GCC/ARM_CM3/port.o
                0x000000000000e594                SVC_Handler
 .text.vPortStartFirstTask
                0x000000000000e5b4       0x14 ./FreeRTOS/portable/GCC/ARM_CM3/port.o
                0x000000000000e5b4                vPortStartFirstTask
 .text.xPortStartScheduler
                0x000000000000e5c8       0x54 ./FreeRTOS/portable/GCC/ARM_CM3/port.o
                0x000000000000e5c8                xPortStartScheduler
 .text.vPortYieldFromISR
                0x000000000000e61c       0x10 ./FreeRTOS/portable/GCC/ARM_CM3/port.o
                0x000000000000e61c                vPortYieldFromISR
 .text.vPortEnterCritical
                0x000000000000e62c       0x18 ./FreeRTOS/portable/GCC/ARM_CM3/port.o
                0x000000000000e62c                vPortEnterCritical
 .text.vPortExitCritical
                0x000000000000e644       0x18 ./FreeRTOS/portable/GCC/ARM_CM3/port.o
                0x000000000000e644                vPortExitCritical
 .text.PendSV_Handler
                0x000000000000e65c       0x3c ./FreeRTOS/portable/GCC/ARM_CM3/port.o
                0x000000000000e65c                PendSV_Handler
 .text.SysTick_Handler
                0x000000000000e698       0x24 ./FreeRTOS/portable/GCC/ARM_CM3/port.o
                0x000000000000e698                SysTick_Handler
 .text.vListInitialise
                0x000000000000e6bc       0x16 ./FreeRTOS/list.o
                0x000000000000e6bc                vListInitialise
 .text.vListInitialiseItem
                0x000000000000e6d2        0x6 ./FreeRTOS/list.o
                0x000000000000e6d2                vListInitialiseItem
 .text.vListInsertEnd
                0x000000000000e6d8       0x1c ./FreeRTOS/list.o
                0x000000000000e6d8                vListInsertEnd
 .text.vListInsert
                0x000000000000e6f4       0x3a ./FreeRTOS/list.o
                0x000000000000e6f4                vListInsert
 .text.vListRemove
                0x000000000000e72e       0x22 ./FreeRTOS/list.o
                0x000000000000e72e                vListRemove
 .text.prvCopyDataToQueue
                0x000000000000e750       0x5e ./FreeRTOS/queue.o
 .text.prvCopyDataFromQueue
                0x000000000000e7ae       0x20 ./FreeRTOS/queue.o
 .text.prvUnlockQueue
                0x000000000000e7ce       0x76 ./FreeRTOS/queue.o
 .text.xQueueCreate
                0x000000000000e844       0x6c ./FreeRTOS/queue.o
                0x000000000000e844                xQueueCreate
 .text.xQueueGenericSend
                0x000000000000e8b0      0x104 ./FreeRTOS/queue.o
                0x000000000000e8b0                xQueueGenericSend
 .text.xQueueGenericSendFromISR
                0x000000000000e9b4       0x82 ./FreeRTOS/queue.o
                0x000000000000e9b4                xQueueGenericSendFromISR
 .text.xQueueGenericReceive
                0x000000000000ea36      0x142 ./FreeRTOS/queue.o
                0x000000000000ea36                xQueueGenericReceive
 .text.uxQueueMessagesWaiting
                0x000000000000eb78       0x1e ./FreeRTOS/queue.o
                0x000000000000eb78                uxQueueMessagesWaiting
 .text.vQueueDelete
                0x000000000000eb96       0x1e ./FreeRTOS/queue.o
                0x000000000000eb96                vQueueDelete
 .text.vQueueWaitForMessageRestricted
                0x000000000000ebb4       0x3e ./FreeRTOS/queue.o
                0x000000000000ebb4                vQueueWaitForMessageRestricted
 .text.prvDeleteTCB
                0x000000000000ebf2       0x12 ./FreeRTOS/tasks.o
 .text.prvAddCurrentTaskToDelayedList
                0x000000000000ec04       0x54 ./FreeRTOS/tasks.o
 .text.xTaskGenericCreate
                0x000000000000ec58      0x1fc ./FreeRTOS/tasks.o
                0x000000000000ec58                xTaskGenericCreate
 .text.vTaskStartScheduler
                0x000000000000ee54       0x64 ./FreeRTOS/tasks.o
                0x000000000000ee54                vTaskStartScheduler
 .text.vTaskSuspendAll
                0x000000000000eeb8       0x10 ./FreeRTOS/tasks.o
                0x000000000000eeb8                vTaskSuspendAll
 .text.xTaskGetTickCount
                0x000000000000eec8       0x18 ./FreeRTOS/tasks.o
                0x000000000000eec8                xTaskGetTickCount
 .text.vTaskIncrementTick
                0x000000000000eee0      0x110 ./FreeRTOS/tasks.o
                0x000000000000eee0                vTaskIncrementTick
 .text.xTaskResumeAll
                0x000000000000eff0       0xf8 ./FreeRTOS/tasks.o
                0x000000000000eff0                xTaskResumeAll
 .text.vTaskDelay
                0x000000000000f0e8       0x34 ./FreeRTOS/tasks.o
                0x000000000000f0e8                vTaskDelay
 .text.prvIdleTask
                0x000000000000f11c       0x64 ./FreeRTOS/tasks.o
 .text.vTaskSwitchContext
                0x000000000000f180      0x15c ./FreeRTOS/tasks.o
                0x000000000000f180                vTaskSwitchContext
 .text.vTaskPlaceOnEventList
                0x000000000000f2dc       0x4c ./FreeRTOS/tasks.o
                0x000000000000f2dc                vTaskPlaceOnEventList
 .text.vTaskPlaceOnEventListRestricted
                0x000000000000f328       0x38 ./FreeRTOS/tasks.o
                0x000000000000f328                vTaskPlaceOnEventListRestricted
 .text.xTaskRemoveFromEventList
                0x000000000000f360       0x78 ./FreeRTOS/tasks.o
                0x000000000000f360                xTaskRemoveFromEventList
 .text.vTaskSetTimeOutState
                0x000000000000f3d8       0x24 ./FreeRTOS/tasks.o
                0x000000000000f3d8                vTaskSetTimeOutState
 .text.xTaskCheckForTimeOut
                0x000000000000f3fc       0x78 ./FreeRTOS/tasks.o
                0x000000000000f3fc                xTaskCheckForTimeOut
 .text.vTaskMissedYield
                0x000000000000f474        0xc ./FreeRTOS/tasks.o
                0x000000000000f474                vTaskMissedYield
 .text.xTaskGetCurrentTaskHandle
                0x000000000000f480        0xc ./FreeRTOS/tasks.o
                0x000000000000f480                xTaskGetCurrentTaskHandle
 .text.xTaskGetSchedulerState
                0x000000000000f48c       0x1c ./FreeRTOS/tasks.o
                0x000000000000f48c                xTaskGetSchedulerState
 .text.vTaskPriorityInherit
                0x000000000000f4a8       0x7c ./FreeRTOS/tasks.o
                0x000000000000f4a8                vTaskPriorityInherit
 .text.vTaskPriorityDisinherit
                0x000000000000f524       0x4c ./FreeRTOS/tasks.o
                0x000000000000f524                vTaskPriorityDisinherit
 .text.prvInsertTimerInActiveList
                0x000000000000f570       0x48 ./FreeRTOS/timers.o
 .text.prvCheckForValidListAndQueue
                0x000000000000f5b8       0x4c ./FreeRTOS/timers.o
 .text.xTimerCreateTimerTask
                0x000000000000f604       0x44 ./FreeRTOS/timers.o
                0x000000000000f604                xTimerCreateTimerTask
 .text.xTimerGenericCommand
                0x000000000000f648       0x48 ./FreeRTOS/timers.o
                0x000000000000f648                xTimerGenericCommand
 .text.prvSampleTimeNow
                0x000000000000f690       0xa8 ./FreeRTOS/timers.o
 .text.prvTimerTask
                0x000000000000f738      0x158 ./FreeRTOS/timers.o
 .text._close   0x000000000000f890        0x6 ./CMSIS/startup_gcc/newlib_stubs.o
                0x000000000000f890                _close
 .text._exit    0x000000000000f896        0x2 ./CMSIS/startup_gcc/newlib_stubs.o
                0x000000000000f896                _exit
 .text._fstat   0x000000000000f898        0xa ./CMSIS/startup_gcc/newlib_stubs.o
                0x000000000000f898                _fstat
 .text._getpid  0x000000000000f8a2        0x4 ./CMSIS/startup_gcc/newlib_stubs.o
                0x000000000000f8a2                _getpid
 .text._isatty  0x000000000000f8a6        0x4 ./CMSIS/startup_gcc/newlib_stubs.o
                0x000000000000f8a6                _isatty
 .text._kill    0x000000000000f8aa       0x10 ./CMSIS/startup_gcc/newlib_stubs.o
                0x000000000000f8aa                _kill
 .text._lseek   0x000000000000f8ba        0x4 ./CMSIS/startup_gcc/newlib_stubs.o
                0x000000000000f8ba                _lseek
 .text._read    0x000000000000f8be        0x4 ./CMSIS/startup_gcc/newlib_stubs.o
                0x000000000000f8be                _read
 *fill*         0x000000000000f8c2        0x2 
 .text._write_r
                0x000000000000f8c4       0x38 ./CMSIS/startup_gcc/newlib_stubs.o
                0x000000000000f8c4                _write_r
 .text._sbrk    0x000000000000f8fc       0x64 ./CMSIS/startup_gcc/newlib_stubs.o
                0x000000000000f8fc                _sbrk
 .text.set_clock_frequency_globals
                0x000000000000f960       0x40 ./CMSIS/system_m2sxxx.o
 .text.SystemInit
                0x000000000000f9a0       0xc0 ./CMSIS/system_m2sxxx.o
                0x000000000000f9a0                SystemInit
 .text.SystemCoreClockUpdate
                0x000000000000fa60       0xf0 ./CMSIS/system_m2sxxx.o
                0x000000000000fa60                SystemCoreClockUpdate
 .text.prvEthernetConfigureInterface
                0x000000000000fb50       0x4c ./main.o
 .text.prvLinkStatusTask
                0x000000000000fb9c       0x68 ./main.o
                0x000000000000fb9c                prvLinkStatusTask
 .text.main     0x000000000000fc04      0x1e4 ./main.o
                0x000000000000fc04                main
 .text.vApplicationMallocFailedHook
                0x000000000000fde8        0x2 ./main.o
                0x000000000000fde8                vApplicationMallocFailedHook
 .text.vApplicationStackOverflowHook
                0x000000000000fdea        0xa ./main.o
                0x000000000000fdea                vApplicationStackOverflowHook
 .text.vApplicationIdleHook
                0x000000000000fdf4       0x12 ./main.o
                0x000000000000fdf4                vApplicationIdleHook
 *fill*         0x000000000000fe06        0x2 
 .text.vMainConfigureTimerForRunTimeStats
                0x000000000000fe08       0x60 ./main.o
                0x000000000000fe08                vMainConfigureTimerForRunTimeStats
 .text.ulGetRunTimeCounterValue
                0x000000000000fe68       0x1a ./main.o
                0x000000000000fe68                ulGetRunTimeCounterValue
 *fill*         0x000000000000fe82        0x2 
 .text.get_ip_address
                0x000000000000fe84        0xc ./main.o
                0x000000000000fe84                get_ip_address
 .text.get_mac_address
                0x000000000000fe90       0x18 ./main.o
                0x000000000000fe90                get_mac_address
 .text.mscc_post_hw_cfg_init
                0x000000000000fea8        0x2 ./mscc_post_hw_cfg_init.o
                0x000000000000fea8                mscc_post_hw_cfg_init
 *fill*         0x000000000000feaa        0x2 
 .text.sys_cfg_get_mac_address
                0x000000000000feac       0x1c ./sys_cfg.o
                0x000000000000feac                sys_cfg_get_mac_address
 .text.set_user_eth_speed_choice
                0x000000000000fec8       0x34 ./sys_cfg.o
                0x000000000000fec8                set_user_eth_speed_choice
 .text.uart_tx_handler
                0x000000000000fefc       0x54 ./uart_task.o
 .text.send_msg
                0x000000000000ff50       0x58 ./uart_task.o
 .text.display_reset_msg
                0x000000000000ffa8       0x24 ./uart_task.o
 .text.prvUARTTask
                0x000000000000ffcc      0x324 ./uart_task.o
                0x000000000000ffcc                prvUARTTask
 .text.__assert_func
                0x00000000000102f0       0x3c /home/jerryneedell/Microchip/SoftConsole-v6.4/arm-none-eabi-gcc/bin/../lib/gcc/arm-none-eabi/9.2.1/../../../../arm-none-eabi/lib/thumb/v7-m/nofp/libg_nano.a(lib_a-assert.o)
                0x00000000000102f0                __assert_func
 .text.__errno  0x000000000001032c        0xc /home/jerryneedell/Microchip/SoftConsole-v6.4/arm-none-eabi-gcc/bin/../lib/gcc/arm-none-eabi/9.2.1/../../../../arm-none-eabi/lib/thumb/v7-m/nofp/libg_nano.a(lib_a-errno.o)
                0x000000000001032c                __errno
 .text.fprintf  0x0000000000010338       0x24 /home/jerryneedell/Microchip/SoftConsole-v6.4/arm-none-eabi-gcc/bin/../lib/gcc/arm-none-eabi/9.2.1/../../../../arm-none-eabi/lib/thumb/v7-m/nofp/libg_nano.a(lib_a-fprintf.o)
                0x0000000000010338                fprintf
                0x0000000000010338                fiprintf
 .text.__libc_init_array
                0x000000000001035c       0x48 /home/jerryneedell/Microchip/SoftConsole-v6.4/arm-none-eabi-gcc/bin/../lib/gcc/arm-none-eabi/9.2.1/../../../../arm-none-eabi/lib/thumb/v7-m/nofp/libg_nano.a(lib_a-init.o)
                0x000000000001035c                __libc_init_array
 .text.memcmp   0x00000000000103a4       0x1c /home/jerryneedell/Microchip/SoftConsole-v6.4/arm-none-eabi-gcc/bin/../lib/gcc/arm-none-eabi/9.2.1/../../../../arm-none-eabi/lib/thumb/v7-m/nofp/libg_nano.a(lib_a-memcmp.o)
                0x00000000000103a4                memcmp
 .text.memcpy   0x00000000000103c0       0x1c /home/jerryneedell/Microchip/SoftConsole-v6.4/arm-none-eabi-gcc/bin/../lib/gcc/arm-none-eabi/9.2.1/../../../../arm-none-eabi/lib/thumb/v7-m/nofp/libg_nano.a(lib_a-memcpy-stub.o)
                0x00000000000103c0                memcpy
 .text.memset   0x00000000000103dc       0x10 /home/jerryneedell/Microchip/SoftConsole-v6.4/arm-none-eabi-gcc/bin/../lib/gcc/arm-none-eabi/9.2.1/../../../../arm-none-eabi/lib/thumb/v7-m/nofp/libg_nano.a(lib_a-memset.o)
                0x00000000000103dc                memset
 .text.__sfputc_r
                0x00000000000103ec       0x2a /home/jerryneedell/Microchip/SoftConsole-v6.4/arm-none-eabi-gcc/bin/../lib/gcc/arm-none-eabi/9.2.1/../../../../arm-none-eabi/lib/thumb/v7-m/nofp/libg_nano.a(lib_a-nano-vfprintf.o)
 .text.__sfputs_r
                0x0000000000010416       0x24 /home/jerryneedell/Microchip/SoftConsole-v6.4/arm-none-eabi-gcc/bin/../lib/gcc/arm-none-eabi/9.2.1/../../../../arm-none-eabi/lib/thumb/v7-m/nofp/libg_nano.a(lib_a-nano-vfprintf.o)
                0x0000000000010416                __sfputs_r
 *fill*         0x000000000001043a        0x2 
 .text._vfprintf_r
                0x000000000001043c      0x260 /home/jerryneedell/Microchip/SoftConsole-v6.4/arm-none-eabi-gcc/bin/../lib/gcc/arm-none-eabi/9.2.1/../../../../arm-none-eabi/lib/thumb/v7-m/nofp/libg_nano.a(lib_a-nano-vfprintf.o)
                0x000000000001043c                _vfiprintf_r
                0x000000000001043c                _vfprintf_r
 .text._printf_common
                0x000000000001069c       0xde /home/jerryneedell/Microchip/SoftConsole-v6.4/arm-none-eabi-gcc/bin/../lib/gcc/arm-none-eabi/9.2.1/../../../../arm-none-eabi/lib/thumb/v7-m/nofp/libg_nano.a(lib_a-nano-vfprintf_i.o)
                0x000000000001069c                _printf_common
 *fill*         0x000000000001077a        0x2 
 .text._printf_i
                0x000000000001077c      0x24c /home/jerryneedell/Microchip/SoftConsole-v6.4/arm-none-eabi-gcc/bin/../lib/gcc/arm-none-eabi/9.2.1/../../../../arm-none-eabi/lib/thumb/v7-m/nofp/libg_nano.a(lib_a-nano-vfprintf_i.o)
                0x000000000001077c                _printf_i
 .text.snprintf
                0x00000000000109c8       0x68 /home/jerryneedell/Microchip/SoftConsole-v6.4/arm-none-eabi-gcc/bin/../lib/gcc/arm-none-eabi/9.2.1/../../../../arm-none-eabi/lib/thumb/v7-m/nofp/libg_nano.a(lib_a-snprintf.o)
                0x00000000000109c8                snprintf
                0x00000000000109c8                sniprintf
 .text.strncpy  0x0000000000010a30       0x26 /home/jerryneedell/Microchip/SoftConsole-v6.4/arm-none-eabi-gcc/bin/../lib/gcc/arm-none-eabi/9.2.1/../../../../arm-none-eabi/lib/thumb/v7-m/nofp/libg_nano.a(lib_a-strncpy.o)
                0x0000000000010a30                strncpy
 *fill*         0x0000000000010a56        0x2 
 .text.__swbuf_r
                0x0000000000010a58       0xa4 /home/jerryneedell/Microchip/SoftConsole-v6.4/arm-none-eabi-gcc/bin/../lib/gcc/arm-none-eabi/9.2.1/../../../../arm-none-eabi/lib/thumb/v7-m/nofp/libg_nano.a(lib_a-wbuf.o)
                0x0000000000010a58                __swbuf_r
 .text.__swsetup_r
                0x0000000000010afc       0xdc /home/jerryneedell/Microchip/SoftConsole-v6.4/arm-none-eabi-gcc/bin/../lib/gcc/arm-none-eabi/9.2.1/../../../../arm-none-eabi/lib/thumb/v7-m/nofp/libg_nano.a(lib_a-wsetup.o)
                0x0000000000010afc                __swsetup_r
 .text.abort    0x0000000000010bd8        0xe /home/jerryneedell/Microchip/SoftConsole-v6.4/arm-none-eabi-gcc/bin/../lib/gcc/arm-none-eabi/9.2.1/../../../../arm-none-eabi/lib/thumb/v7-m/nofp/libg_nano.a(lib_a-abort.o)
                0x0000000000010bd8                abort
 *fill*         0x0000000000010be6        0x2 
 .text.__sflush_r
                0x0000000000010be8      0x10c /home/jerryneedell/Microchip/SoftConsole-v6.4/arm-none-eabi-gcc/bin/../lib/gcc/arm-none-eabi/9.2.1/../../../../arm-none-eabi/lib/thumb/v7-m/nofp/libg_nano.a(lib_a-fflush.o)
                0x0000000000010be8                __sflush_r
 .text._fflush_r
                0x0000000000010cf4       0x78 /home/jerryneedell/Microchip/SoftConsole-v6.4/arm-none-eabi-gcc/bin/../lib/gcc/arm-none-eabi/9.2.1/../../../../arm-none-eabi/lib/thumb/v7-m/nofp/libg_nano.a(lib_a-fflush.o)
                0x0000000000010cf4                _fflush_r
 .text.std      0x0000000000010d6c       0x48 /home/jerryneedell/Microchip/SoftConsole-v6.4/arm-none-eabi-gcc/bin/../lib/gcc/arm-none-eabi/9.2.1/../../../../arm-none-eabi/lib/thumb/v7-m/nofp/libg_nano.a(lib_a-findfp.o)
 .text._cleanup_r
                0x0000000000010db4        0xc /home/jerryneedell/Microchip/SoftConsole-v6.4/arm-none-eabi-gcc/bin/../lib/gcc/arm-none-eabi/9.2.1/../../../../arm-none-eabi/lib/thumb/v7-m/nofp/libg_nano.a(lib_a-findfp.o)
                0x0000000000010db4                _cleanup_r
 .text.__sfmoreglue
                0x0000000000010dc0       0x2c /home/jerryneedell/Microchip/SoftConsole-v6.4/arm-none-eabi-gcc/bin/../lib/gcc/arm-none-eabi/9.2.1/../../../../arm-none-eabi/lib/thumb/v7-m/nofp/libg_nano.a(lib_a-findfp.o)
                0x0000000000010dc0                __sfmoreglue
 .text.__sfp_lock_acquire
                0x0000000000010dec        0xc /home/jerryneedell/Microchip/SoftConsole-v6.4/arm-none-eabi-gcc/bin/../lib/gcc/arm-none-eabi/9.2.1/../../../../arm-none-eabi/lib/thumb/v7-m/nofp/libg_nano.a(lib_a-findfp.o)
                0x0000000000010dec                __sfp_lock_acquire
 .text.__sfp_lock_release
                0x0000000000010df8        0xc /home/jerryneedell/Microchip/SoftConsole-v6.4/arm-none-eabi-gcc/bin/../lib/gcc/arm-none-eabi/9.2.1/../../../../arm-none-eabi/lib/thumb/v7-m/nofp/libg_nano.a(lib_a-findfp.o)
                0x0000000000010df8                __sfp_lock_release
 .text.__sinit_lock_acquire
                0x0000000000010e04        0xc /home/jerryneedell/Microchip/SoftConsole-v6.4/arm-none-eabi-gcc/bin/../lib/gcc/arm-none-eabi/9.2.1/../../../../arm-none-eabi/lib/thumb/v7-m/nofp/libg_nano.a(lib_a-findfp.o)
                0x0000000000010e04                __sinit_lock_acquire
 .text.__sinit_lock_release
                0x0000000000010e10        0xc /home/jerryneedell/Microchip/SoftConsole-v6.4/arm-none-eabi-gcc/bin/../lib/gcc/arm-none-eabi/9.2.1/../../../../arm-none-eabi/lib/thumb/v7-m/nofp/libg_nano.a(lib_a-findfp.o)
                0x0000000000010e10                __sinit_lock_release
 .text.__sinit  0x0000000000010e1c       0x70 /home/jerryneedell/Microchip/SoftConsole-v6.4/arm-none-eabi-gcc/bin/../lib/gcc/arm-none-eabi/9.2.1/../../../../arm-none-eabi/lib/thumb/v7-m/nofp/libg_nano.a(lib_a-findfp.o)
                0x0000000000010e1c                __sinit
 .text.__sfp    0x0000000000010e8c       0x8c /home/jerryneedell/Microchip/SoftConsole-v6.4/arm-none-eabi-gcc/bin/../lib/gcc/arm-none-eabi/9.2.1/../../../../arm-none-eabi/lib/thumb/v7-m/nofp/libg_nano.a(lib_a-findfp.o)
                0x0000000000010e8c                __sfp
 .text._fwalk_reent
                0x0000000000010f18       0x3e /home/jerryneedell/Microchip/SoftConsole-v6.4/arm-none-eabi-gcc/bin/../lib/gcc/arm-none-eabi/9.2.1/../../../../arm-none-eabi/lib/thumb/v7-m/nofp/libg_nano.a(lib_a-fwalk.o)
                0x0000000000010f18                _fwalk_reent
 .text.__retarget_lock_init_recursive
                0x0000000000010f56        0x2 /home/jerryneedell/Microchip/SoftConsole-v6.4/arm-none-eabi-gcc/bin/../lib/gcc/arm-none-eabi/9.2.1/../../../../arm-none-eabi/lib/thumb/v7-m/nofp/libg_nano.a(lib_a-lock.o)
                0x0000000000010f56                __retarget_lock_init_recursive
 .text.__retarget_lock_acquire_recursive
                0x0000000000010f58        0x2 /home/jerryneedell/Microchip/SoftConsole-v6.4/arm-none-eabi-gcc/bin/../lib/gcc/arm-none-eabi/9.2.1/../../../../arm-none-eabi/lib/thumb/v7-m/nofp/libg_nano.a(lib_a-lock.o)
                0x0000000000010f58                __retarget_lock_acquire_recursive
 .text.__retarget_lock_release_recursive
                0x0000000000010f5a        0x2 /home/jerryneedell/Microchip/SoftConsole-v6.4/arm-none-eabi-gcc/bin/../lib/gcc/arm-none-eabi/9.2.1/../../../../arm-none-eabi/lib/thumb/v7-m/nofp/libg_nano.a(lib_a-lock.o)
                0x0000000000010f5a                __retarget_lock_release_recursive
 .text.__swhatbuf_r
                0x0000000000010f5c       0x48 /home/jerryneedell/Microchip/SoftConsole-v6.4/arm-none-eabi-gcc/bin/../lib/gcc/arm-none-eabi/9.2.1/../../../../arm-none-eabi/lib/thumb/v7-m/nofp/libg_nano.a(lib_a-makebuf.o)
                0x0000000000010f5c                __swhatbuf_r
 .text.__smakebuf_r
                0x0000000000010fa4       0x80 /home/jerryneedell/Microchip/SoftConsole-v6.4/arm-none-eabi-gcc/bin/../lib/gcc/arm-none-eabi/9.2.1/../../../../arm-none-eabi/lib/thumb/v7-m/nofp/libg_nano.a(lib_a-makebuf.o)
                0x0000000000010fa4                __smakebuf_r
 .text.memchr   0x0000000000011024       0x1c /home/jerryneedell/Microchip/SoftConsole-v6.4/arm-none-eabi-gcc/bin/../lib/gcc/arm-none-eabi/9.2.1/../../../../arm-none-eabi/lib/thumb/v7-m/nofp/libg_nano.a(lib_a-memchr-stub.o)
                0x0000000000011024                memchr
 .text.memmove  0x0000000000011040       0x34 /home/jerryneedell/Microchip/SoftConsole-v6.4/arm-none-eabi-gcc/bin/../lib/gcc/arm-none-eabi/9.2.1/../../../../arm-none-eabi/lib/thumb/v7-m/nofp/libg_nano.a(lib_a-memmove.o)
                0x0000000000011040                memmove
 .text._free_r  0x0000000000011074       0x98 /home/jerryneedell/Microchip/SoftConsole-v6.4/arm-none-eabi-gcc/bin/../lib/gcc/arm-none-eabi/9.2.1/../../../../arm-none-eabi/lib/thumb/v7-m/nofp/libg_nano.a(lib_a-nano-freer.o)
                0x0000000000011074                _free_r
 .text._malloc_r
                0x000000000001110c       0xb4 /home/jerryneedell/Microchip/SoftConsole-v6.4/arm-none-eabi-gcc/bin/../lib/gcc/arm-none-eabi/9.2.1/../../../../arm-none-eabi/lib/thumb/v7-m/nofp/libg_nano.a(lib_a-nano-mallocr.o)
                0x000000000001110c                _malloc_r
 .text._realloc_r
                0x00000000000111c0       0x4c /home/jerryneedell/Microchip/SoftConsole-v6.4/arm-none-eabi-gcc/bin/../lib/gcc/arm-none-eabi/9.2.1/../../../../arm-none-eabi/lib/thumb/v7-m/nofp/libg_nano.a(lib_a-nano-reallocr.o)
                0x00000000000111c0                _realloc_r
 .text.__ssputs_r
                0x000000000001120c       0xb6 /home/jerryneedell/Microchip/SoftConsole-v6.4/arm-none-eabi-gcc/bin/../lib/gcc/arm-none-eabi/9.2.1/../../../../arm-none-eabi/lib/thumb/v7-m/nofp/libg_nano.a(lib_a-nano-svfprintf.o)
                0x000000000001120c                __ssputs_r
 *fill*         0x00000000000112c2        0x2 
 .text._svfprintf_r
                0x00000000000112c4      0x200 /home/jerryneedell/Microchip/SoftConsole-v6.4/arm-none-eabi-gcc/bin/../lib/gcc/arm-none-eabi/9.2.1/../../../../arm-none-eabi/lib/thumb/v7-m/nofp/libg_nano.a(lib_a-nano-svfprintf.o)
                0x00000000000112c4                _svfprintf_r
                0x00000000000112c4                _svfiprintf_r
 .text._sbrk_r  0x00000000000114c4       0x20 /home/jerryneedell/Microchip/SoftConsole-v6.4/arm-none-eabi-gcc/bin/../lib/gcc/arm-none-eabi/9.2.1/../../../../arm-none-eabi/lib/thumb/v7-m/nofp/libg_nano.a(lib_a-sbrkr.o)
                0x00000000000114c4                _sbrk_r
 .text._raise_r
                0x00000000000114e4       0x50 /home/jerryneedell/Microchip/SoftConsole-v6.4/arm-none-eabi-gcc/bin/../lib/gcc/arm-none-eabi/9.2.1/../../../../arm-none-eabi/lib/thumb/v7-m/nofp/libg_nano.a(lib_a-signal.o)
                0x00000000000114e4                _raise_r
 .text.raise    0x0000000000011534       0x10 /home/jerryneedell/Microchip/SoftConsole-v6.4/arm-none-eabi-gcc/bin/../lib/gcc/arm-none-eabi/9.2.1/../../../../arm-none-eabi/lib/thumb/v7-m/nofp/libg_nano.a(lib_a-signal.o)
                0x0000000000011534                raise
 .text._kill_r  0x0000000000011544       0x24 /home/jerryneedell/Microchip/SoftConsole-v6.4/arm-none-eabi-gcc/bin/../lib/gcc/arm-none-eabi/9.2.1/../../../../arm-none-eabi/lib/thumb/v7-m/nofp/libg_nano.a(lib_a-signalr.o)
                0x0000000000011544                _kill_r
 .text._getpid_r
                0x0000000000011568        0x4 /home/jerryneedell/Microchip/SoftConsole-v6.4/arm-none-eabi-gcc/bin/../lib/gcc/arm-none-eabi/9.2.1/../../../../arm-none-eabi/lib/thumb/v7-m/nofp/libg_nano.a(lib_a-signalr.o)
                0x0000000000011568                _getpid_r
 .text.__sread  0x000000000001156c       0x22 /home/jerryneedell/Microchip/SoftConsole-v6.4/arm-none-eabi-gcc/bin/../lib/gcc/arm-none-eabi/9.2.1/../../../../arm-none-eabi/lib/thumb/v7-m/nofp/libg_nano.a(lib_a-stdio.o)
                0x000000000001156c                __sread
 .text.__swrite
                0x000000000001158e       0x38 /home/jerryneedell/Microchip/SoftConsole-v6.4/arm-none-eabi-gcc/bin/../lib/gcc/arm-none-eabi/9.2.1/../../../../arm-none-eabi/lib/thumb/v7-m/nofp/libg_nano.a(lib_a-stdio.o)
                0x000000000001158e                __swrite
 .text.__sseek  0x00000000000115c6       0x24 /home/jerryneedell/Microchip/SoftConsole-v6.4/arm-none-eabi-gcc/bin/../lib/gcc/arm-none-eabi/9.2.1/../../../../arm-none-eabi/lib/thumb/v7-m/nofp/libg_nano.a(lib_a-stdio.o)
                0x00000000000115c6                __sseek
 .text.__sclose
                0x00000000000115ea        0x8 /home/jerryneedell/Microchip/SoftConsole-v6.4/arm-none-eabi-gcc/bin/../lib/gcc/arm-none-eabi/9.2.1/../../../../arm-none-eabi/lib/thumb/v7-m/nofp/libg_nano.a(lib_a-stdio.o)
                0x00000000000115ea                __sclose
 *fill*         0x00000000000115f2        0x2 
 .text._close_r
                0x00000000000115f4       0x20 /home/jerryneedell/Microchip/SoftConsole-v6.4/arm-none-eabi-gcc/bin/../lib/gcc/arm-none-eabi/9.2.1/../../../../arm-none-eabi/lib/thumb/v7-m/nofp/libg_nano.a(lib_a-closer.o)
                0x00000000000115f4                _close_r
 .text._fstat_r
                0x0000000000011614       0x24 /home/jerryneedell/Microchip/SoftConsole-v6.4/arm-none-eabi-gcc/bin/../lib/gcc/arm-none-eabi/9.2.1/../../../../arm-none-eabi/lib/thumb/v7-m/nofp/libg_nano.a(lib_a-fstatr.o)
                0x0000000000011614                _fstat_r
 .text._isatty_r
                0x0000000000011638       0x20 /home/jerryneedell/Microchip/SoftConsole-v6.4/arm-none-eabi-gcc/bin/../lib/gcc/arm-none-eabi/9.2.1/../../../../arm-none-eabi/lib/thumb/v7-m/nofp/libg_nano.a(lib_a-isattyr.o)
                0x0000000000011638                _isatty_r
 .text._lseek_r
                0x0000000000011658       0x24 /home/jerryneedell/Microchip/SoftConsole-v6.4/arm-none-eabi-gcc/bin/../lib/gcc/arm-none-eabi/9.2.1/../../../../arm-none-eabi/lib/thumb/v7-m/nofp/libg_nano.a(lib_a-lseekr.o)
                0x0000000000011658                _lseek_r
 .text.__malloc_lock
                0x000000000001167c        0xc /home/jerryneedell/Microchip/SoftConsole-v6.4/arm-none-eabi-gcc/bin/../lib/gcc/arm-none-eabi/9.2.1/../../../../arm-none-eabi/lib/thumb/v7-m/nofp/libg_nano.a(lib_a-mlock.o)
                0x000000000001167c                __malloc_lock
 .text.__malloc_unlock
                0x0000000000011688        0xc /home/jerryneedell/Microchip/SoftConsole-v6.4/arm-none-eabi-gcc/bin/../lib/gcc/arm-none-eabi/9.2.1/../../../../arm-none-eabi/lib/thumb/v7-m/nofp/libg_nano.a(lib_a-mlock.o)
                0x0000000000011688                __malloc_unlock
 .text._malloc_usable_size_r
                0x0000000000011694       0x10 /home/jerryneedell/Microchip/SoftConsole-v6.4/arm-none-eabi-gcc/bin/../lib/gcc/arm-none-eabi/9.2.1/../../../../arm-none-eabi/lib/thumb/v7-m/nofp/libg_nano.a(lib_a-nano-msizer.o)
                0x0000000000011694                _malloc_usable_size_r
 .text._read_r  0x00000000000116a4       0x24 /home/jerryneedell/Microchip/SoftConsole-v6.4/arm-none-eabi-gcc/bin/../lib/gcc/arm-none-eabi/9.2.1/../../../../arm-none-eabi/lib/thumb/v7-m/nofp/libg_nano.a(lib_a-readr.o)
                0x00000000000116a4                _read_r
 *(.plt)
 *(.gnu.warning)
 *(.glue_7t)
 .glue_7t       0x00000000000116c8        0x0 linker stubs
 *(.glue_7)
 .glue_7        0x00000000000116c8        0x0 linker stubs
 *(.vfp11_veneer)
 .vfp11_veneer  0x00000000000116c8        0x0 linker stubs
                0x00000000000116c8                . = ALIGN (0x4)
 *crtbegin.o(.ctors)
 *(EXCLUDE_FILE(*crtend.o) .ctors)
 *(SORT_BY_NAME(.ctors.*))
 *crtend.o(.ctors)
 *crtbegin.o(.dtors)
 *(EXCLUDE_FILE(*crtend.o) .dtors)
 *(SORT_BY_NAME(.dtors.*))
 *crtend.o(.dtors)
 *(.rodata .rodata.* .gnu.linkonce.r.*)
 .rodata.etharp_find_entry.str1.4
                0x00000000000116c8       0x55 ./lwip-1.4.1/netif/etharp.o
 *fill*         0x000000000001171d        0x3 
 .rodata.etharp_send_ip.str1.4
                0x0000000000011720       0x44 ./lwip-1.4.1/netif/etharp.o
 .rodata.etharp_request.str1.4
                0x0000000000011764       0x4b ./lwip-1.4.1/netif/etharp.o
 *fill*         0x00000000000117af        0x1 
 .rodata.etharp_output_to_arp_index.str1.4
                0x00000000000117b0       0x30 ./lwip-1.4.1/netif/etharp.o
 .rodata.etharp_query.str1.4
                0x00000000000117e0       0x1a ./lwip-1.4.1/netif/etharp.o
 *fill*         0x00000000000117fa        0x2 
 .rodata.etharp_output.str1.4
                0x00000000000117fc       0x1b ./lwip-1.4.1/netif/etharp.o
 *fill*         0x0000000000011817        0x1 
 .rodata.ethernet_input.str1.4
                0x0000000000011818       0x4b ./lwip-1.4.1/netif/etharp.o
 *fill*         0x0000000000011863        0x1 
 .rodata        0x0000000000011864        0x6 ./lwip-1.4.1/netif/etharp.o
 *fill*         0x000000000001186a        0x2 
 .rodata.ethbroadcast
                0x000000000001186c        0x6 ./lwip-1.4.1/netif/etharp.o
                0x000000000001186c                ethbroadcast
 *fill*         0x0000000000011872        0x2 
 .rodata.icmp_send_response.str1.4
                0x0000000000011874       0x2c ./lwip-1.4.1/core/ipv4/icmp.o
 .rodata.icmp_input.str1.4
                0x00000000000118a0       0xc6 ./lwip-1.4.1/core/ipv4/icmp.o
                                         0xe9 (size before relaxing)
 *fill*         0x0000000000011966        0x2 
 .rodata.igmp_send.str1.4
                0x0000000000011968       0x3a ./lwip-1.4.1/core/ipv4/igmp.o
 *fill*         0x00000000000119a2        0x2 
 .rodata.ip_output_if_opt.str1.4
                0x00000000000119a4       0x39 ./lwip-1.4.1/core/ipv4/ip.o
 *fill*         0x00000000000119dd        0x3 
 .rodata.ip_addr_any
                0x00000000000119e0        0x4 ./lwip-1.4.1/core/ipv4/ip_addr.o
                0x00000000000119e0                ip_addr_any
 .rodata.ip_addr_broadcast
                0x00000000000119e4        0x4 ./lwip-1.4.1/core/ipv4/ip_addr.o
                0x00000000000119e4                ip_addr_broadcast
 .rodata.ip_reass_dequeue_datagram.str1.4
                0x00000000000119e8       0x19 ./lwip-1.4.1/core/ipv4/ip_frag.o
 *fill*         0x0000000000011a01        0x3 
 .rodata.ip_reass_free_complete_datagram.str1.4
                0x0000000000011a04       0x5b ./lwip-1.4.1/core/ipv4/ip_frag.o
 .rodata.ip_frag_free_pbuf_custom_ref.str1.4
                0x0000000000011a5f       0x5b ./lwip-1.4.1/core/ipv4/ip_frag.o
                                          0xa (size before relaxing)
 *fill*         0x0000000000011a5f        0x1 
 .rodata.ipfrag_free_pbuf_custom.str1.4
                0x0000000000011a60        0xc ./lwip-1.4.1/core/ipv4/ip_frag.o
 .rodata.ip_reass.str1.4
                0x0000000000011a6c       0x61 ./lwip-1.4.1/core/ipv4/ip_frag.o
 *fill*         0x0000000000011acd        0x3 
 .rodata.ip_frag.str1.4
                0x0000000000011ad0       0x20 ./lwip-1.4.1/core/ipv4/ip_frag.o
 .rodata.dhcp_option.str1.4
                0x0000000000011af0       0x48 ./lwip-1.4.1/core/dhcp.o
 .rodata.dhcp_option_byte.str1.4
                0x0000000000011b38       0x3b ./lwip-1.4.1/core/dhcp.o
 *fill*         0x0000000000011b73        0x1 
 .rodata.dhcp_option_short.str1.4
                0x0000000000011b74       0x41 ./lwip-1.4.1/core/dhcp.o
 *fill*         0x0000000000011bb5        0x3 
 .rodata.dhcp_option_long.str1.4
                0x0000000000011bb8       0x40 ./lwip-1.4.1/core/dhcp.o
 .rodata.dhcp_option_trailer.str1.4
                0x0000000000011bf8       0x8f ./lwip-1.4.1/core/dhcp.o
 *fill*         0x0000000000011c87        0x1 
 .rodata.dhcp_create_msg.str1.4
                0x0000000000011c88       0xd0 ./lwip-1.4.1/core/dhcp.o
 .rodata.dhcp_delete_msg.str1.4
                0x0000000000011d58       0x6f ./lwip-1.4.1/core/dhcp.o
 *fill*         0x0000000000011dc7        0x1 
 .rodata.dhcp_bind.str1.4
                0x0000000000011dc8       0x34 ./lwip-1.4.1/core/dhcp.o
 .rodata.dhcp_recv.str1.4
                0x0000000000011dfc       0x9f ./lwip-1.4.1/core/dhcp.o
 *fill*         0x0000000000011e9b        0x1 
 .rodata.dhcp_set_struct.str1.4
                0x0000000000011e9c       0x34 ./lwip-1.4.1/core/dhcp.o
                                         0x44 (size before relaxing)
 .rodata.dhcp_stop.str1.4
                0x0000000000011ed0       0x19 ./lwip-1.4.1/core/dhcp.o
 *fill*         0x0000000000011ee9        0x3 
 .rodata.dhcp_start.str1.4
                0x0000000000011eec       0x18 ./lwip-1.4.1/core/dhcp.o
 .rodata.sys_timeout.str1.4
                0x0000000000011f04       0x3d ./lwip-1.4.1/core/lwip_timers.o
 *fill*         0x0000000000011f41        0x3 
 .rodata.mem_init.str1.4
                0x0000000000011f44       0x1b ./lwip-1.4.1/core/mem.o
 *fill*         0x0000000000011f5f        0x1 
 .rodata.mem_free.str1.4
                0x0000000000011f60       0xca ./lwip-1.4.1/core/mem.o
 *fill*         0x000000000001202a        0x2 
 .rodata.mem_trim.str1.4
                0x000000000001202c       0x38 ./lwip-1.4.1/core/mem.o
 .rodata.mem_malloc.str1.4
                0x0000000000012064       0x83 ./lwip-1.4.1/core/mem.o
 *fill*         0x00000000000120e7        0x1 
 .rodata.memp_malloc.str1.4
                0x00000000000120e8       0x43 ./lwip-1.4.1/core/memp.o
 *fill*         0x000000000001212b        0x1 
 .rodata.memp_free.str1.4
                0x000000000001212c       0x2c ./lwip-1.4.1/core/memp.o
 .rodata.memp_num
                0x0000000000012158       0x1e ./lwip-1.4.1/core/memp.o
 *fill*         0x0000000000012176        0x2 
 .rodata.memp_sizes
                0x0000000000012178       0x1e ./lwip-1.4.1/core/memp.o
 *fill*         0x0000000000012196        0x2 
 .rodata.netif_add.str1.4
                0x0000000000012198       0x17 ./lwip-1.4.1/core/netif.o
 *fill*         0x00000000000121af        0x1 
 .rodata.pbuf_alloced_custom.str1.4
                0x00000000000121b0       0x24 ./lwip-1.4.1/core/pbuf.o
 .rodata.pbuf_header.str1.4
                0x00000000000121d4       0x2e ./lwip-1.4.1/core/pbuf.o
                                         0x3a (size before relaxing)
 *fill*         0x0000000000012202        0x2 
 .rodata.pbuf_free.str1.4
                0x0000000000012204       0x51 ./lwip-1.4.1/core/pbuf.o
 *fill*         0x0000000000012255        0x3 
 .rodata.pbuf_alloc.str1.4
                0x0000000000012258       0xaf ./lwip-1.4.1/core/pbuf.o
 *fill*         0x0000000000012307        0x1 
 .rodata.pbuf_realloc.str1.4
                0x0000000000012308       0x7c ./lwip-1.4.1/core/pbuf.o
 .rodata.pbuf_cat.str1.4
                0x0000000000012384       0x78 ./lwip-1.4.1/core/pbuf.o
 .rodata.pbuf_copy.str1.4
                0x00000000000123fc       0x9f ./lwip-1.4.1/core/pbuf.o
 *fill*         0x000000000001249b        0x1 
 .rodata.pbuf_copy_partial.str1.4
                0x000000000001249c       0x43 ./lwip-1.4.1/core/pbuf.o
 *fill*         0x00000000000124df        0x1 
 .rodata.tcp_bind.str1.4
                0x00000000000124e0       0x28 ./lwip-1.4.1/core/tcp.o
 .rodata.tcp_listen_with_backlog.str1.4
                0x0000000000012508       0x22 ./lwip-1.4.1/core/tcp.o
 *fill*         0x000000000001252a        0x2 
 .rodata.tcp_update_rcv_ann_wnd.str1.4
                0x000000000001252c       0x1a ./lwip-1.4.1/core/tcp.o
 *fill*         0x0000000000012546        0x2 
 .rodata.tcp_recved.str1.4
                0x0000000000012548       0x4c ./lwip-1.4.1/core/tcp.o
 .rodata.tcp_recv.str1.4
                0x0000000000012594       0x27 ./lwip-1.4.1/core/tcp.o
 *fill*         0x00000000000125bb        0x1 
 .rodata.tcp_sent.str1.4
                0x00000000000125bc       0x27 ./lwip-1.4.1/core/tcp.o
 *fill*         0x00000000000125e3        0x1 
 .rodata.tcp_err.str1.4
                0x00000000000125e4       0x26 ./lwip-1.4.1/core/tcp.o
 *fill*         0x000000000001260a        0x2 
 .rodata.tcp_poll.str1.4
                0x000000000001260c       0x1e ./lwip-1.4.1/core/tcp.o
 *fill*         0x000000000001262a        0x2 
 .rodata.tcp_slowtmr.str1.4
                0x000000000001262c      0x15e ./lwip-1.4.1/core/tcp.o
 *fill*         0x000000000001278a        0x2 
 .rodata.tcp_pcb_remove.str1.4
                0x000000000001278c       0x4b ./lwip-1.4.1/core/tcp.o
 *fill*         0x00000000000127d7        0x1 
 .rodata.tcp_close_shutdown.str1.4
                0x00000000000127d8       0x19 ./lwip-1.4.1/core/tcp.o
 *fill*         0x00000000000127f1        0x3 
 .rodata.tcp_abandon.str1.4
                0x00000000000127f4       0x31 ./lwip-1.4.1/core/tcp.o
 *fill*         0x0000000000012825        0x3 
 .rodata.tcp_backoff
                0x0000000000012828        0xd ./lwip-1.4.1/core/tcp.o
                0x0000000000012828                tcp_backoff
 *fill*         0x0000000000012835        0x3 
 .rodata.tcp_pcb_lists
                0x0000000000012838       0x10 ./lwip-1.4.1/core/tcp.o
                0x0000000000012838                tcp_pcb_lists
 .rodata.tcp_persist_backoff
                0x0000000000012848        0x7 ./lwip-1.4.1/core/tcp.o
                0x0000000000012848                tcp_persist_backoff
 *fill*         0x000000000001284f        0x1 
 .rodata.tcp_receive.str1.4
                0x0000000000012850      0x161 ./lwip-1.4.1/core/tcp_in.o
 *fill*         0x00000000000129b1        0x3 
 .rodata.tcp_input.str1.4
                0x00000000000129b4      0x16a ./lwip-1.4.1/core/tcp_in.o
 *fill*         0x0000000000012b1e        0x2 
 .rodata.tcp_pbuf_prealloc.str1.4
                0x0000000000012b20       0x14 ./lwip-1.4.1/core/tcp_out.o
 .rodata.tcp_output_alloc_header.str1.4
                0x0000000000012b34       0x2e ./lwip-1.4.1/core/tcp_out.o
 *fill*         0x0000000000012b62        0x2 
 .rodata.tcp_write.str1.4
                0x0000000000012b64      0x1ae ./lwip-1.4.1/core/tcp_out.o
 *fill*         0x0000000000012d12        0x2 
 .rodata.tcp_enqueue_flags.str1.4
                0x0000000000012d14      0x100 ./lwip-1.4.1/core/tcp_out.o
 .rodata.tcp_output.str1.4
                0x0000000000012e14       0x3f ./lwip-1.4.1/core/tcp_out.o
 *fill*         0x0000000000012e53        0x1 
 .rodata.udp_input.str1.4
                0x0000000000012e54       0x28 ./lwip-1.4.1/core/udp.o
 .rodata.udp_bind.str1.4
                0x0000000000012e7c        0xc ./lwip-1.4.1/core/udp.o
 .rodata.udp_sendto_if.str1.4
                0x0000000000012e88       0x2e ./lwip-1.4.1/core/udp.o
 *fill*         0x0000000000012eb6        0x2 
 .rodata.netconn_close_shutdown.str1.4
                0x0000000000012eb8       0x1c ./lwip-1.4.1/api/api_lib.o
 .rodata.netconn_recv_data.str1.4
                0x0000000000012ed4       0x6c ./lwip-1.4.1/api/api_lib.o
 .rodata.netconn_new_with_proto_and_callback.str1.4
                0x0000000000012f40       0x79 ./lwip-1.4.1/api/api_lib.o
 *fill*         0x0000000000012fb9        0x3 
 .rodata.netconn_bind.str1.4
                0x0000000000012fbc       0x1b ./lwip-1.4.1/api/api_lib.o
 *fill*         0x0000000000012fd7        0x1 
 .rodata.netconn_listen_with_backlog.str1.4
                0x0000000000012fd8       0x1d ./lwip-1.4.1/api/api_lib.o
 *fill*         0x0000000000012ff5        0x3 
 .rodata.netconn_accept.str1.4
                0x0000000000012ff8       0x63 ./lwip-1.4.1/api/api_lib.o
 .rodata.netconn_recv.str1.4
                0x000000000001305b        0xa ./lwip-1.4.1/api/api_lib.o
 *fill*         0x000000000001305b        0x1 
 .rodata.netconn_write_partly.str1.4
                0x000000000001305c       0x3e ./lwip-1.4.1/api/api_lib.o
 *fill*         0x000000000001309a        0x2 
 .rodata.recv_udp.str1.4
                0x000000000001309c       0x62 ./lwip-1.4.1/api/api_msg.o
 *fill*         0x00000000000130fe        0x2 
 .rodata.err_tcp.str1.4
                0x0000000000013100       0x46 ./lwip-1.4.1/api/api_msg.o
 *fill*         0x0000000000013146        0x2 
 .rodata.do_writemore.str1.4
                0x0000000000013148       0x8a ./lwip-1.4.1/api/api_msg.o
 *fill*         0x00000000000131d2        0x2 
 .rodata.do_close_internal.str1.4
                0x00000000000131d4       0x7b ./lwip-1.4.1/api/api_msg.o
                                         0x8b (size before relaxing)
 *fill*         0x000000000001324f        0x1 
 .rodata.recv_tcp.str1.4
                0x0000000000013250       0x62 ./lwip-1.4.1/api/api_msg.o
 *fill*         0x00000000000132b2        0x2 
 .rodata.netconn_free.str1.4
                0x00000000000132b4       0xa8 ./lwip-1.4.1/api/api_msg.o
 .rodata.netconn_drain.str1.4
                0x000000000001335c       0x2d ./lwip-1.4.1/api/api_msg.o
 *fill*         0x0000000000013389        0x3 
 .rodata.do_delconn.str1.4
                0x000000000001338c       0x5b ./lwip-1.4.1/api/api_msg.o
 *fill*         0x00000000000133e7        0x1 
 .rodata.do_write.str1.4
                0x00000000000133e8       0x14 ./lwip-1.4.1/api/api_msg.o
 .rodata.netbuf_data.str1.4
                0x00000000000133fc       0x55 ./lwip-1.4.1/api/netbuf.o
 *fill*         0x0000000000013451        0x3 
 .rodata.tcpip_thread.str1.4
                0x0000000000013454       0x1e ./lwip-1.4.1/api/tcpip.o
 *fill*         0x0000000000013472        0x2 
 .rodata.tcpip_init.str1.4
                0x0000000000013474       0x31 ./lwip-1.4.1/api/tcpip.o
 *fill*         0x00000000000134a5        0x3 
 .rodata.g_m2s_serdes_0_config
                0x00000000000134a8      0x208 ./drivers_config/sys_config/sys_config_SERDESIF_0.o
                0x00000000000134a8                g_m2s_serdes_0_config
 .rodata        0x00000000000136b0       0xb0 ./drivers/mss_ethernet_mac/mss_ethernet_mac.o
 .rodata.str1.4
                0x0000000000013760       0x3c ./WebServer/httpserver-netconn.o
 .rodata.http_server_netconn_thread.str1.4
                0x000000000001379c      0x3be ./WebServer/httpserver-netconn.o
 *fill*         0x0000000000013b5a        0x2 
 .rodata        0x0000000000013b5c       0x10 ./WebServer/httpserver-netconn.o
 .rodata.__func__.8649
                0x0000000000013b6c       0x1a ./WebServer/httpserver-netconn.o
 *fill*         0x0000000000013b86        0x2 
 .rodata.http_html_hdr
                0x0000000000013b88       0x2d ./WebServer/httpserver-netconn.o
 *fill*         0x0000000000013bb5        0x3 
 .rodata.http_html_ok_hdr
                0x0000000000013bb8       0x14 ./WebServer/httpserver-netconn.o
 .rodata.http_index_html
                0x0000000000013bcc     0x5901 ./WebServer/httpserver-netconn.o
 *fill*         0x00000000000194cd        0x3 
 .rodata.http_json_hdr
                0x00000000000194d0       0x3b ./WebServer/httpserver-netconn.o
 *fill*         0x000000000001950b        0x1 
 .rodata.http_post_resp_hdr
                0x000000000001950c       0x1c ./WebServer/httpserver-netconn.o
 .rodata.mscc_jpg_logo
                0x0000000000019528     0x22a7 ./WebServer/mscc_logo.o
                0x0000000000019528                mscc_jpg_logo
 *fill*         0x000000000001b7cf        0x1 
 .rodata.vTaskStartScheduler.str1.4
                0x000000000001b7d0        0x5 ./FreeRTOS/tasks.o
 *fill*         0x000000000001b7d5        0x3 
 .rodata.ucExpectedStackBytes.6255
                0x000000000001b7d8       0x14 ./FreeRTOS/tasks.o
 .rodata.xTimerCreateTimerTask.str1.4
                0x000000000001b7ec        0x8 ./FreeRTOS/timers.o
 .rodata._sbrk.str1.4
                0x000000000001b7f4       0x30 ./CMSIS/startup_gcc/newlib_stubs.o
 .rodata        0x000000000001b824        0x8 ./CMSIS/system_m2sxxx.o
 .rodata.main.str1.4
                0x000000000001b82c       0x22 ./main.o
 *fill*         0x000000000001b84e        0x2 
 .rodata.prvUARTTask.str1.4
                0x000000000001b850      0x26d ./uart_task.o
 *fill*         0x000000000001babd        0x3 
 .rodata.g_instructions_msg
                0x000000000001bac0      0x1e9 ./uart_task.o
 *fill*         0x000000000001bca9        0x3 
 .rodata.g_reset_msg
                0x000000000001bcac       0x2b ./uart_task.o
 .rodata.__assert_func.str1.1
                0x000000000001bcd7       0x3c /home/jerryneedell/Microchip/SoftConsole-v6.4/arm-none-eabi-gcc/bin/../lib/gcc/arm-none-eabi/9.2.1/../../../../arm-none-eabi/lib/thumb/v7-m/nofp/libg_nano.a(lib_a-assert.o)
                                         0x3d (size before relaxing)
 *fill*         0x000000000001bd13        0x1 
 .rodata._global_impure_ptr
                0x000000000001bd14        0x4 /home/jerryneedell/Microchip/SoftConsole-v6.4/arm-none-eabi-gcc/bin/../lib/gcc/arm-none-eabi/9.2.1/../../../../arm-none-eabi/lib/thumb/v7-m/nofp/libg_nano.a(lib_a-impure.o)
                0x000000000001bd14                _global_impure_ptr
 .rodata._vfprintf_r.str1.1
                0x000000000001bd18       0x11 /home/jerryneedell/Microchip/SoftConsole-v6.4/arm-none-eabi-gcc/bin/../lib/gcc/arm-none-eabi/9.2.1/../../../../arm-none-eabi/lib/thumb/v7-m/nofp/libg_nano.a(lib_a-nano-vfprintf.o)
 .rodata._printf_i.str1.1
                0x000000000001bd29       0x22 /home/jerryneedell/Microchip/SoftConsole-v6.4/arm-none-eabi-gcc/bin/../lib/gcc/arm-none-eabi/9.2.1/../../../../arm-none-eabi/lib/thumb/v7-m/nofp/libg_nano.a(lib_a-nano-vfprintf_i.o)
 *fill*         0x000000000001bd4b        0x1 
 .rodata.__sf_fake_stderr
                0x000000000001bd4c       0x20 /home/jerryneedell/Microchip/SoftConsole-v6.4/arm-none-eabi-gcc/bin/../lib/gcc/arm-none-eabi/9.2.1/../../../../arm-none-eabi/lib/thumb/v7-m/nofp/libg_nano.a(lib_a-findfp.o)
                0x000000000001bd4c                __sf_fake_stderr
 .rodata.__sf_fake_stdin
                0x000000000001bd6c       0x20 /home/jerryneedell/Microchip/SoftConsole-v6.4/arm-none-eabi-gcc/bin/../lib/gcc/arm-none-eabi/9.2.1/../../../../arm-none-eabi/lib/thumb/v7-m/nofp/libg_nano.a(lib_a-findfp.o)
                0x000000000001bd6c                __sf_fake_stdin
 .rodata.__sf_fake_stdout
                0x000000000001bd8c       0x20 /home/jerryneedell/Microchip/SoftConsole-v6.4/arm-none-eabi-gcc/bin/../lib/gcc/arm-none-eabi/9.2.1/../../../../arm-none-eabi/lib/thumb/v7-m/nofp/libg_nano.a(lib_a-findfp.o)
                0x000000000001bd8c                __sf_fake_stdout
 .rodata._svfprintf_r.str1.1
                0x000000000001bdac       0x11 /home/jerryneedell/Microchip/SoftConsole-v6.4/arm-none-eabi-gcc/bin/../lib/gcc/arm-none-eabi/9.2.1/../../../../arm-none-eabi/lib/thumb/v7-m/nofp/libg_nano.a(lib_a-nano-svfprintf.o)
 *(.ARM.extab* .gnu.linkonce.armextab.*)
 *(.gcc_except_table)
 *(.eh_frame_hdr)
 *(.eh_frame)
 .eh_frame      0x000000000001bdac        0x0 /home/jerryneedell/Microchip/SoftConsole-v6.4/arm-none-eabi-gcc/bin/../lib/gcc/arm-none-eabi/9.2.1/thumb/v7-m/nofp/crtbegin.o
 *(.vector_table)
 *(.init)
 .init          0x000000000001bdac        0x4 /home/jerryneedell/Microchip/SoftConsole-v6.4/arm-none-eabi-gcc/bin/../lib/gcc/arm-none-eabi/9.2.1/thumb/v7-m/nofp/crti.o
                0x000000000001bdac                _init
 .init          0x000000000001bdb0        0x8 /home/jerryneedell/Microchip/SoftConsole-v6.4/arm-none-eabi-gcc/bin/../lib/gcc/arm-none-eabi/9.2.1/thumb/v7-m/nofp/crtn.o
 *(.fini)
 .fini          0x000000000001bdb8        0x4 /home/jerryneedell/Microchip/SoftConsole-v6.4/arm-none-eabi-gcc/bin/../lib/gcc/arm-none-eabi/9.2.1/thumb/v7-m/nofp/crti.o
                0x000000000001bdb8                _fini
 .fini          0x000000000001bdbc        0x8 /home/jerryneedell/Microchip/SoftConsole-v6.4/arm-none-eabi-gcc/bin/../lib/gcc/arm-none-eabi/9.2.1/thumb/v7-m/nofp/crtn.o
                0x000000000001bdc4                PROVIDE (__preinit_array_start = .)
 *(.preinit_array)
                0x000000000001bdc4                PROVIDE (__preinit_array_end = .)
                0x000000000001bdc4                PROVIDE (__init_array_start = .)
 *(SORT_BY_NAME(.init_array.*))
 *(.init_array)
 .init_array    0x000000000001bdc4        0x4 /home/jerryneedell/Microchip/SoftConsole-v6.4/arm-none-eabi-gcc/bin/../lib/gcc/arm-none-eabi/9.2.1/thumb/v7-m/nofp/crtbegin.o
                0x000000000001bdc8                PROVIDE (__init_array_end = .)
                [!provide]                        PROVIDE (__fini_array_start = .)
 *(.fini_array)
 .fini_array    0x000000000001bdc8        0x4 /home/jerryneedell/Microchip/SoftConsole-v6.4/arm-none-eabi-gcc/bin/../lib/gcc/arm-none-eabi/9.2.1/thumb/v7-m/nofp/crtbegin.o
 *(SORT_BY_NAME(.fini_array.*))
                [!provide]                        PROVIDE (__fini_array_end = .)
                0x000000000001bdd0                . = ALIGN (0x10)
 *fill*         0x000000000001bdcc        0x4 
                0x000000000001bdd0                __exidx_start = .

.v4_bx          0x000000000001bdd0        0x0
 .v4_bx         0x000000000001bdd0        0x0 linker stubs

.iplt           0x000000000001bdd0        0x0
 .iplt          0x000000000001bdd0        0x0 /home/jerryneedell/Microchip/SoftConsole-v6.4/arm-none-eabi-gcc/bin/../lib/gcc/arm-none-eabi/9.2.1/thumb/v7-m/nofp/crtbegin.o

.rel.dyn        0x000000000001bdd0        0x0
 .rel.iplt      0x000000000001bdd0        0x0 /home/jerryneedell/Microchip/SoftConsole-v6.4/arm-none-eabi-gcc/bin/../lib/gcc/arm-none-eabi/9.2.1/thumb/v7-m/nofp/crtbegin.o

.ARM.exidx
 *(.ARM.exidx* .gnu.linkonce.armexidx.*)
                0x000000000001bdd0                __exidx_end = .
                0x000000000001bdd0                _etext = .

.data           0x0000000020000000       0xa0 load address 0x000000000001bdd0
                0x000000000001bdd0                __data_load = LOADADDR (.data)
                0x000000000001bdd0                _sidata = LOADADDR (.data)
                0x0000000020000000                __data_start = .
                0x0000000020000000                _sdata = .
 *(.jcr)
 *(.got.plt)
 *(.got)
 *(.shdata)
 *(.data .data.* .gnu.linkonce.d.*)
 .data.iss.8883
                0x0000000020000000        0x4 ./lwip-1.4.1/core/tcp.o
 .data.tcp_port
                0x0000000020000004        0x2 ./lwip-1.4.1/core/tcp.o
 .data.udp_port
                0x0000000020000006        0x2 ./lwip-1.4.1/core/udp.o
 .data.previous_duplex.6339
                0x0000000020000008        0x1 ./drivers/mss_ethernet_mac/mss_ethernet_mac.o
 .data.previous_speed.6338
                0x0000000020000009        0x1 ./drivers/mss_ethernet_mac/mss_ethernet_mac.o
 *fill*         0x000000002000000a        0x2 
 .data.xFreeBytesRemaining
                0x000000002000000c        0x4 ./FreeRTOS/portable/MemMang/heap_2.o
 .data.uxCriticalNesting
                0x0000000020000010        0x4 ./FreeRTOS/portable/GCC/ARM_CM3/port.o
 .data.uxPreviousTask
                0x0000000020000014        0x4 ./FreeRTOS/tasks.o
 .data.xNextTaskUnblockTime
                0x0000000020000018        0x4 ./FreeRTOS/tasks.o
 .data.SystemCoreClock
                0x000000002000001c        0x4 ./CMSIS/system_m2sxxx.o
                0x000000002000001c                SystemCoreClock
 .data.g_FrequencyFIC0
                0x0000000020000020        0x4 ./CMSIS/system_m2sxxx.o
                0x0000000020000020                g_FrequencyFIC0
 .data.g_FrequencyFIC1
                0x0000000020000024        0x4 ./CMSIS/system_m2sxxx.o
                0x0000000020000024                g_FrequencyFIC1
 .data.g_FrequencyFIC64
                0x0000000020000028        0x4 ./CMSIS/system_m2sxxx.o
                0x0000000020000028                g_FrequencyFIC64
 .data.g_FrequencyPCLK0
                0x000000002000002c        0x4 ./CMSIS/system_m2sxxx.o
                0x000000002000002c                g_FrequencyPCLK0
 .data.g_FrequencyPCLK1
                0x0000000020000030        0x4 ./CMSIS/system_m2sxxx.o
                0x0000000020000030                g_FrequencyPCLK1
 .data.g_FrequencyPCLK2
                0x0000000020000034        0x4 ./CMSIS/system_m2sxxx.o
                0x0000000020000034                g_FrequencyPCLK2
 .data._impure_ptr
                0x0000000020000038        0x4 /home/jerryneedell/Microchip/SoftConsole-v6.4/arm-none-eabi-gcc/bin/../lib/gcc/arm-none-eabi/9.2.1/../../../../arm-none-eabi/lib/thumb/v7-m/nofp/libg_nano.a(lib_a-impure.o)
                0x0000000020000038                _impure_ptr
 .data.impure_data
                0x000000002000003c       0x60 /home/jerryneedell/Microchip/SoftConsole-v6.4/arm-none-eabi-gcc/bin/../lib/gcc/arm-none-eabi/9.2.1/../../../../arm-none-eabi/lib/thumb/v7-m/nofp/libg_nano.a(lib_a-impure.o)
                0x00000000200000a0                . = ALIGN (0x10)
 *fill*         0x000000002000009c        0x4 
                0x00000000200000a0                _edata = .

.igot.plt       0x00000000200000a0        0x0 load address 0x000000000001be70
 .igot.plt      0x00000000200000a0        0x0 /home/jerryneedell/Microchip/SoftConsole-v6.4/arm-none-eabi-gcc/bin/../lib/gcc/arm-none-eabi/9.2.1/thumb/v7-m/nofp/crtbegin.o

.noinit         0x00000000200000a0        0x8 load address 0x000000000001be70
 .noinit        0x00000000200000a0        0x8 ./sys_cfg.o

.bss            0x00000000200000b0     0x9650 load address 0x000000000001be80
                0x00000000200000b0                __bss_start__ = .
                0x00000000200000b0                _sbss = .
 *(.shbss)
 *(.bss .bss.* .gnu.linkonce.b.*)
 .bss.completed.8911
                0x00000000200000b0        0x1 /home/jerryneedell/Microchip/SoftConsole-v6.4/arm-none-eabi-gcc/bin/../lib/gcc/arm-none-eabi/9.2.1/thumb/v7-m/nofp/crtbegin.o
 *fill*         0x00000000200000b1        0x3 
 .bss.object.8916
                0x00000000200000b4       0x18 /home/jerryneedell/Microchip/SoftConsole-v6.4/arm-none-eabi-gcc/bin/../lib/gcc/arm-none-eabi/9.2.1/thumb/v7-m/nofp/crtbegin.o
 .bss.arp_table
                0x00000000200000cc       0xc8 ./lwip-1.4.1/netif/etharp.o
 .bss.etharp_cached_entry
                0x0000000020000194        0x1 ./lwip-1.4.1/netif/etharp.o
 *fill*         0x0000000020000195        0x3 
 .bss.g_mac_rx_buffer
                0x0000000020000198      0x5ee ./lwip-1.4.1/netif/m2sxxx_ethernetif.o
 *fill*         0x0000000020000786        0x2 
 .bss.g_mac_rx_buffer_data_valid
                0x0000000020000788        0x4 ./lwip-1.4.1/netif/m2sxxx_ethernetif.o
 .bss.g_mac_tx_buffer
                0x000000002000078c      0x5ee ./lwip-1.4.1/netif/m2sxxx_ethernetif.o
 *fill*         0x0000000020000d7a        0x2 
 .bss.g_mac_tx_buffer_used
                0x0000000020000d7c        0x4 ./lwip-1.4.1/netif/m2sxxx_ethernetif.o
 .bss.g_p_mac_netif
                0x0000000020000d80        0x4 ./lwip-1.4.1/netif/m2sxxx_ethernetif.o
                0x0000000020000d80                g_p_mac_netif
 .bss.g_rx_paused
                0x0000000020000d84        0x1 ./lwip-1.4.1/netif/m2sxxx_ethernetif.o
 *fill*         0x0000000020000d85        0x3 
 .bss.prev_packetset
                0x0000000020000d88        0x6 ./lwip-1.4.1/netif/m2sxxx_ethernetif.o
 *fill*         0x0000000020000d8e        0x2 
 .bss.r_mac_addr
                0x0000000020000d90       0x3c ./lwip-1.4.1/netif/m2sxxx_ethernetif.o
 .bss.r_mac_length
                0x0000000020000dcc        0x1 ./lwip-1.4.1/netif/m2sxxx_ethernetif.o
 *fill*         0x0000000020000dcd        0x3 
 .bss.allrouters
                0x0000000020000dd0        0x4 ./lwip-1.4.1/core/ipv4/igmp.o
 .bss.allsystems
                0x0000000020000dd4        0x4 ./lwip-1.4.1/core/ipv4/igmp.o
 .bss.igmp_group_list
                0x0000000020000dd8        0x4 ./lwip-1.4.1/core/ipv4/igmp.o
 .bss.ip_id     0x0000000020000ddc        0x2 ./lwip-1.4.1/core/ipv4/ip.o
 .bss.ip_reass_pbufcount
                0x0000000020000dde        0x2 ./lwip-1.4.1/core/ipv4/ip_frag.o
 .bss.reassdatagrams
                0x0000000020000de0        0x4 ./lwip-1.4.1/core/ipv4/ip_frag.o
 .bss.xid.8736  0x0000000020000de4        0x4 ./lwip-1.4.1/core/dhcp.o
 .bss.next_timeout
                0x0000000020000de8        0x4 ./lwip-1.4.1/core/lwip_timers.o
 .bss.tcpip_tcp_timer_active
                0x0000000020000dec        0x4 ./lwip-1.4.1/core/lwip_timers.o
 .bss.lfree     0x0000000020000df0        0x4 ./lwip-1.4.1/core/mem.o
 .bss.mem_mutex
                0x0000000020000df4        0x4 ./lwip-1.4.1/core/mem.o
 .bss.ram       0x0000000020000df8        0x4 ./lwip-1.4.1/core/mem.o
 .bss.ram_end   0x0000000020000dfc        0x4 ./lwip-1.4.1/core/mem.o
 .bss.memp_memory
                0x0000000020000e00     0x1f57 ./lwip-1.4.1/core/memp.o
 *fill*         0x0000000020002d57        0x1 
 .bss.memp_tab  0x0000000020002d58       0x3c ./lwip-1.4.1/core/memp.o
 .bss.netif_num
                0x0000000020002d94        0x1 ./lwip-1.4.1/core/netif.o
 *fill*         0x0000000020002d95        0x3 
 .bss.raw_pcbs  0x0000000020002d98        0x4 ./lwip-1.4.1/core/raw.o
 .bss.tcp_timer
                0x0000000020002d9c        0x1 ./lwip-1.4.1/core/tcp.o
 .bss.tcp_timer_ctr
                0x0000000020002d9d        0x1 ./lwip-1.4.1/core/tcp.o
 *fill*         0x0000000020002d9e        0x2 
 .bss.ackno     0x0000000020002da0        0x4 ./lwip-1.4.1/core/tcp_in.o
 .bss.flags     0x0000000020002da4        0x1 ./lwip-1.4.1/core/tcp_in.o
 *fill*         0x0000000020002da5        0x3 
 .bss.inseg     0x0000000020002da8       0x10 ./lwip-1.4.1/core/tcp_in.o
 .bss.recv_data
                0x0000000020002db8        0x4 ./lwip-1.4.1/core/tcp_in.o
 .bss.recv_flags
                0x0000000020002dbc        0x1 ./lwip-1.4.1/core/tcp_in.o
 *fill*         0x0000000020002dbd        0x3 
 .bss.seqno     0x0000000020002dc0        0x4 ./lwip-1.4.1/core/tcp_in.o
 .bss.tcphdr    0x0000000020002dc4        0x4 ./lwip-1.4.1/core/tcp_in.o
 .bss.tcplen    0x0000000020002dc8        0x2 ./lwip-1.4.1/core/tcp_in.o
 *fill*         0x0000000020002dca        0x2 
 .bss.mbox      0x0000000020002dcc        0x4 ./lwip-1.4.1/api/tcpip.o
 .bss.tcpip_init_done
                0x0000000020002dd0        0x4 ./lwip-1.4.1/api/tcpip.o
 .bss.tcpip_init_done_arg
                0x0000000020002dd4        0x4 ./lwip-1.4.1/api/tcpip.o
 .bss.g_async_event_handler
                0x0000000020002dd8        0x4 ./drivers/mss_sys_services/mss_comblk.o
 .bss.g_comblk_cmd_opcode
                0x0000000020002ddc        0x1 ./drivers/mss_sys_services/mss_comblk.o
 *fill*         0x0000000020002ddd        0x1 
 .bss.g_comblk_cmd_size
                0x0000000020002dde        0x2 ./drivers/mss_sys_services/mss_comblk.o
 .bss.g_comblk_completion_handler
                0x0000000020002de0        0x4 ./drivers/mss_sys_services/mss_comblk.o
 .bss.g_comblk_data_size
                0x0000000020002de4        0x4 ./drivers/mss_sys_services/mss_comblk.o
 .bss.g_comblk_p_cmd
                0x0000000020002de8        0x4 ./drivers/mss_sys_services/mss_comblk.o
 .bss.g_comblk_p_data
                0x0000000020002dec        0x4 ./drivers/mss_sys_services/mss_comblk.o
 .bss.g_comblk_p_response
                0x0000000020002df0        0x4 ./drivers/mss_sys_services/mss_comblk.o
 .bss.g_comblk_page_handler
                0x0000000020002df4        0x4 ./drivers/mss_sys_services/mss_comblk.o
 .bss.g_comblk_response_idx
                0x0000000020002df8        0x2 ./drivers/mss_sys_services/mss_comblk.o
 .bss.g_comblk_response_size
                0x0000000020002dfa        0x2 ./drivers/mss_sys_services/mss_comblk.o
 .bss.g_comblk_state
                0x0000000020002dfc        0x1 ./drivers/mss_sys_services/mss_comblk.o
 .bss.g_request_in_progress
                0x0000000020002dfd        0x1 ./drivers/mss_sys_services/mss_comblk.o
 .bss.g_phy_addr
                0x0000000020002dfe        0x1 ./drivers/mss_ethernet_mac/m88e1340_phy.o
 *fill*         0x0000000020002dff        0x1 
 .bss.g_mac     0x0000000020002e00       0x68 ./drivers/mss_ethernet_mac/mss_ethernet_mac.o
 .bss.status_json
                0x0000000020002e68      0x320 ./WebServer/httpserver-netconn.o
 .bss.xEnd      0x0000000020003188        0x8 ./FreeRTOS/portable/MemMang/heap_2.o
 .bss.xHeap     0x0000000020003190     0x5000 ./FreeRTOS/portable/MemMang/heap_2.o
 .bss.xHeapHasBeenInitialised.4995
                0x0000000020008190        0x4 ./FreeRTOS/portable/MemMang/heap_2.o
 .bss.xStart    0x0000000020008194        0x8 ./FreeRTOS/portable/MemMang/heap_2.o
 .bss.pcTraceBuffer
                0x000000002000819c        0x4 ./FreeRTOS/tasks.o
 .bss.pcTraceBufferEnd
                0x00000000200081a0        0x4 ./FreeRTOS/tasks.o
 .bss.pxCurrentTCB
                0x00000000200081a4        0x4 ./FreeRTOS/tasks.o
                0x00000000200081a4                pxCurrentTCB
 .bss.pxDelayedTaskList
                0x00000000200081a8        0x4 ./FreeRTOS/tasks.o
 .bss.pxOverflowDelayedTaskList
                0x00000000200081ac        0x4 ./FreeRTOS/tasks.o
 .bss.pxReadyTasksLists
                0x00000000200081b0       0x8c ./FreeRTOS/tasks.o
 .bss.ulTaskSwitchedInTime
                0x000000002000823c        0x4 ./FreeRTOS/tasks.o
 .bss.uxCurrentNumberOfTasks
                0x0000000020008240        0x4 ./FreeRTOS/tasks.o
 .bss.uxMissedTicks
                0x0000000020008244        0x4 ./FreeRTOS/tasks.o
 .bss.uxSchedulerSuspended
                0x0000000020008248        0x4 ./FreeRTOS/tasks.o
 .bss.uxTaskNumber
                0x000000002000824c        0x4 ./FreeRTOS/tasks.o
 .bss.uxTasksDeleted
                0x0000000020008250        0x4 ./FreeRTOS/tasks.o
 .bss.uxTopReadyPriority
                0x0000000020008254        0x4 ./FreeRTOS/tasks.o
 .bss.uxTopUsedPriority
                0x0000000020008258        0x4 ./FreeRTOS/tasks.o
 .bss.xDelayedTaskList1
                0x000000002000825c       0x14 ./FreeRTOS/tasks.o
 .bss.xDelayedTaskList2
                0x0000000020008270       0x14 ./FreeRTOS/tasks.o
 .bss.xMissedYield
                0x0000000020008284        0x4 ./FreeRTOS/tasks.o
 .bss.xNumOfOverflows
                0x0000000020008288        0x4 ./FreeRTOS/tasks.o
 .bss.xPendingReadyList
                0x000000002000828c       0x14 ./FreeRTOS/tasks.o
 .bss.xSchedulerRunning
                0x00000000200082a0        0x4 ./FreeRTOS/tasks.o
 .bss.xSuspendedTaskList
                0x00000000200082a4       0x14 ./FreeRTOS/tasks.o
 .bss.xTasksWaitingTermination
                0x00000000200082b8       0x14 ./FreeRTOS/tasks.o
 .bss.xTickCount
                0x00000000200082cc        0x4 ./FreeRTOS/tasks.o
 .bss.xTracing  0x00000000200082d0        0x4 ./FreeRTOS/tasks.o
 .bss.pxCurrentTimerList
                0x00000000200082d4        0x4 ./FreeRTOS/timers.o
 .bss.pxOverflowTimerList
                0x00000000200082d8        0x4 ./FreeRTOS/timers.o
 .bss.xActiveTimerList1
                0x00000000200082dc       0x14 ./FreeRTOS/timers.o
 .bss.xActiveTimerList2
                0x00000000200082f0       0x14 ./FreeRTOS/timers.o
 .bss.xLastTime.4548
                0x0000000020008304        0x4 ./FreeRTOS/timers.o
 .bss.xTimerQueue
                0x0000000020008308        0x4 ./FreeRTOS/timers.o
 .bss.g_stdio_uart_init_done
                0x000000002000830c        0x4 ./CMSIS/startup_gcc/newlib_stubs.o
 .bss.heap_end.7533
                0x0000000020008310        0x4 ./CMSIS/startup_gcc/newlib_stubs.o
 .bss.s_EMAC_if
                0x0000000020008314       0x38 ./main.o
 .bss.xEthStatusQueue
                0x000000002000834c        0x4 ./main.o
                0x000000002000834c                xEthStatusQueue
 .bss.mac_address.6203
                0x0000000020008350        0x6 ./sys_cfg.o
 *fill*         0x0000000020008356        0x2 
 .bss.g_tx_buffer
                0x0000000020008358        0x4 ./uart_task.o
 .bss.g_tx_size
                0x000000002000835c        0x4 ./uart_task.o
 .bss.ip_addr_msg
                0x0000000020008360       0x80 ./uart_task.o
 .bss.length.8399
                0x00000000200083e0        0x1 ./uart_task.o
 *fill*         0x00000000200083e1        0x3 
 .bss.mac_addr.8398
                0x00000000200083e4       0x3c ./uart_task.o
 .bss.mac_addr_msg.8400
                0x0000000020008420       0x80 ./uart_task.o
 .bss.__malloc_free_list
                0x00000000200084a0        0x4 /home/jerryneedell/Microchip/SoftConsole-v6.4/arm-none-eabi-gcc/bin/../lib/gcc/arm-none-eabi/9.2.1/../../../../arm-none-eabi/lib/thumb/v7-m/nofp/libg_nano.a(lib_a-nano-mallocr.o)
                0x00000000200084a0                __malloc_free_list
 .bss.__malloc_sbrk_start
                0x00000000200084a4        0x4 /home/jerryneedell/Microchip/SoftConsole-v6.4/arm-none-eabi-gcc/bin/../lib/gcc/arm-none-eabi/9.2.1/../../../../arm-none-eabi/lib/thumb/v7-m/nofp/libg_nano.a(lib_a-nano-mallocr.o)
                0x00000000200084a4                __malloc_sbrk_start
 *(COMMON)
 COMMON         0x00000000200084a8       0x2c ./lwip-1.4.1/netif/m2sxxx_ethernetif.o
                0x00000000200084a8                g_mac_config
 COMMON         0x00000000200084d4       0x10 ./lwip-1.4.1/core/ipv4/ip.o
                0x00000000200084d4                current_iphdr_src
                0x00000000200084d8                current_netif
                0x00000000200084dc                current_iphdr_dest
                0x00000000200084e0                current_header
 COMMON         0x00000000200084e4       0x34 ./lwip-1.4.1/core/dhcp.o
                0x00000000200084e4                dhcp_rx_options_given
                0x00000000200084f0                dhcp_rx_options_val
 COMMON         0x0000000020008518     0x1014 ./lwip-1.4.1/core/mem.o
                0x0000000020008518                ram_heap
 COMMON         0x000000002000952c        0x8 ./lwip-1.4.1/core/netif.o
                0x000000002000952c                netif_list
                0x0000000020009530                netif_default
 COMMON         0x0000000020009534        0x1 ./lwip-1.4.1/core/pbuf.o
                0x0000000020009534                pbuf_free_ooseq_pending
 *fill*         0x0000000020009535        0x3 
 COMMON         0x0000000020009538       0x1c ./lwip-1.4.1/core/tcp.o
                0x0000000020009538                tcp_active_pcbs_changed
                0x000000002000953c                tcp_active_pcbs
                0x0000000020009540                tcp_ticks
                0x0000000020009544                tcp_listen_pcbs
                0x0000000020009548                tcp_tmp_pcb
                0x000000002000954c                tcp_bound_pcbs
                0x0000000020009550                tcp_tw_pcbs
 COMMON         0x0000000020009554        0x4 ./lwip-1.4.1/core/tcp_in.o
                0x0000000020009554                tcp_input_pcb
 COMMON         0x0000000020009558        0x4 ./lwip-1.4.1/core/udp.o
                0x0000000020009558                udp_pcbs
 COMMON         0x000000002000955c       0x80 ./drivers/mss_uart/mss_uart.o
                0x000000002000955c                g_mss_uart1
                0x000000002000959c                g_mss_uart0
 COMMON         0x00000000200095dc      0x108 ./drivers/mss_spi/mss_spi.o
                0x00000000200095dc                g_mss_spi1
                0x0000000020009660                g_mss_spi0
 COMMON         0x00000000200096e4        0x2 ./WebServer/httpserver-netconn.o
                0x00000000200096e4                g_ethernet_status
 COMMON         0x00000000200096e6        0x9 /home/jerryneedell/Microchip/SoftConsole-v6.4/arm-none-eabi-gcc/bin/../lib/gcc/arm-none-eabi/9.2.1/../../../../arm-none-eabi/lib/thumb/v7-m/nofp/libg_nano.a(lib_a-lock.o)
                0x00000000200096e6                __lock___atexit_recursive_mutex
                0x00000000200096e7                __lock___arc4random_mutex
                0x00000000200096e8                __lock___env_recursive_mutex
                0x00000000200096e9                __lock___sinit_recursive_mutex
                0x00000000200096ea                __lock___malloc_recursive_mutex
                0x00000000200096eb                __lock___at_quick_exit_mutex
                0x00000000200096ec                __lock___dd_hash_mutex
                0x00000000200096ed                __lock___tz_mutex
                0x00000000200096ee                __lock___sfp_recursive_mutex
 *fill*         0x00000000200096ef        0x1 
 COMMON         0x00000000200096f0        0x4 /home/jerryneedell/Microchip/SoftConsole-v6.4/arm-none-eabi-gcc/bin/../lib/gcc/arm-none-eabi/9.2.1/../../../../arm-none-eabi/lib/thumb/v7-m/nofp/libg_nano.a(lib_a-reent.o)
                0x00000000200096f0                errno
                0x0000000020009700                . = ALIGN (0x10)
 *fill*         0x00000000200096f4        0xc 
                0x0000000020009700                __bss_end__ = .
                0x0000000020009700                _end = .
                0x0000000020009700                __end = _end
                0x0000000020009700                _ebss = .
                [!provide]                        PROVIDE (end = .)

.heap           0x0000000020009700     0x5900 load address 0x000000000001be80
                0x0000000020009700                __heap_start__ = .
                0x000000002000a700                . = (. + MIN_SIZE_HEAP)
 *fill*         0x0000000020009700     0x1000 
                0x000000002000f000                . = (. + (((ABSOLUTE (RAM_START_ADDRESS) + RAM_SIZE) - MAIN_STACK_SIZE) - .))
 *fill*         0x000000002000a700     0x4900 
                0x000000002000f000                _eheap = .

.stack          0x000000002000f000     0x1000 load address 0x000000000001be80
                0x000000002000f000                __stack_start__ = .
                0x0000000020010000                . = (. + MAIN_STACK_SIZE)
 *fill*         0x000000002000f000     0x1000 
                0x0000000020010000                _estack = .

.stab
 *(.stab)

.stabstr
 *(.stabstr)

.debug
 *(.debug)

.line
 *(.line)

.debug_srcinfo
 *(.debug_srcinfo)

.debug_sfnames
 *(.debug_sfnames)

.debug_aranges  0x0000000000000000     0x15b8
 *(.debug_aranges)
 .debug_aranges
                0x0000000000000000       0xb0 ./lwip-1.4.1/port/FreeRTOS/M2SXXX/sys_arch.o
 .debug_aranges
                0x00000000000000b0       0x70 ./lwip-1.4.1/netif/etharp.o
 .debug_aranges
                0x0000000000000120       0x50 ./lwip-1.4.1/netif/m2sxxx_ethernetif.o
 .debug_aranges
                0x0000000000000170       0x38 ./lwip-1.4.1/core/ipv4/icmp.o
 .debug_aranges
                0x00000000000001a8       0x78 ./lwip-1.4.1/core/ipv4/igmp.o
 .debug_aranges
                0x0000000000000220       0x40 ./lwip-1.4.1/core/ipv4/inet_chksum.o
 .debug_aranges
                0x0000000000000260       0x40 ./lwip-1.4.1/core/ipv4/ip.o
 .debug_aranges
                0x00000000000002a0       0x48 ./lwip-1.4.1/core/ipv4/ip_addr.o
 .debug_aranges
                0x00000000000002e8       0x58 ./lwip-1.4.1/core/ipv4/ip_frag.o
 .debug_aranges
                0x0000000000000340       0x38 ./lwip-1.4.1/core/def.o
 .debug_aranges
                0x0000000000000378       0xd8 ./lwip-1.4.1/core/dhcp.o
 .debug_aranges
                0x0000000000000450       0x20 ./lwip-1.4.1/core/init.o
 .debug_aranges
                0x0000000000000470       0x70 ./lwip-1.4.1/core/lwip_timers.o
 .debug_aranges
                0x00000000000004e0       0x40 ./lwip-1.4.1/core/mem.o
 .debug_aranges
                0x0000000000000520       0x30 ./lwip-1.4.1/core/memp.o
 .debug_aranges
                0x0000000000000550       0x80 ./lwip-1.4.1/core/netif.o
 .debug_aranges
                0x00000000000005d0       0xb8 ./lwip-1.4.1/core/pbuf.o
 .debug_aranges
                0x0000000000000688       0x58 ./lwip-1.4.1/core/raw.o
 .debug_aranges
                0x00000000000006e0       0x20 ./lwip-1.4.1/core/sys.o
 .debug_aranges
                0x0000000000000700      0x130 ./lwip-1.4.1/core/tcp.o
 .debug_aranges
                0x0000000000000830       0x38 ./lwip-1.4.1/core/tcp_in.o
 .debug_aranges
                0x0000000000000868       0x88 ./lwip-1.4.1/core/tcp_out.o
 .debug_aranges
                0x00000000000008f0       0x70 ./lwip-1.4.1/core/udp.o
 .debug_aranges
                0x0000000000000960       0xb0 ./lwip-1.4.1/api/api_lib.o
 .debug_aranges
                0x0000000000000a10       0xe8 ./lwip-1.4.1/api/api_msg.o
 .debug_aranges
                0x0000000000000af8       0x60 ./lwip-1.4.1/api/netbuf.o
 .debug_aranges
                0x0000000000000b58       0xf8 ./lwip-1.4.1/api/sockets.o
 .debug_aranges
                0x0000000000000c50       0x80 ./lwip-1.4.1/api/tcpip.o
 .debug_aranges
                0x0000000000000cd0       0x18 ./drivers_config/sys_config/sys_config_SERDESIF_0.o
 .debug_aranges
                0x0000000000000ce8      0x198 ./drivers/mss_uart/mss_uart.o
 .debug_aranges
                0x0000000000000e80       0x68 ./drivers/mss_sys_services/mss_comblk.o
 .debug_aranges
                0x0000000000000ee8       0xc8 ./drivers/mss_spi/mss_spi.o
 .debug_aranges
                0x0000000000000fb0       0x38 ./drivers/mss_ethernet_mac/m88e1340_phy.o
 .debug_aranges
                0x0000000000000fe8       0x78 ./drivers/mss_ethernet_mac/mss_ethernet_mac.o
 .debug_aranges
                0x0000000000001060       0x28 ./WebServer/httpserver-netconn.o
 .debug_aranges
                0x0000000000001088       0x18 ./WebServer/mscc_logo.o
 .debug_aranges
                0x00000000000010a0       0x38 ./FreeRTOS/portable/MemMang/heap_2.o
 .debug_aranges
                0x00000000000010d8       0x68 ./FreeRTOS/portable/GCC/ARM_CM3/port.o
 .debug_aranges
                0x0000000000001140       0x40 ./FreeRTOS/list.o
 .debug_aranges
                0x0000000000001180       0xa0 ./FreeRTOS/queue.o
 .debug_aranges
                0x0000000000001220      0x150 ./FreeRTOS/tasks.o
 .debug_aranges
                0x0000000000001370       0x60 ./FreeRTOS/timers.o
 .debug_aranges
                0x00000000000013d0       0xa8 ./CMSIS/startup_gcc/newlib_stubs.o
 .debug_aranges
                0x0000000000001478       0x20 ./CMSIS/startup_gcc/startup_m2sxxx.o
 .debug_aranges
                0x0000000000001498       0x30 ./CMSIS/system_m2sxxx.o
 .debug_aranges
                0x00000000000014c8       0x68 ./main.o
 .debug_aranges
                0x0000000000001530       0x20 ./mscc_post_hw_cfg_init.o
 .debug_aranges
                0x0000000000001550       0x30 ./sys_cfg.o
 .debug_aranges
                0x0000000000001580       0x38 ./uart_task.o

.debug_pubnames
 *(.debug_pubnames)

.debug_info     0x0000000000000000    0x58678
 *(.debug_info .gnu.linkonce.wi.*)
 .debug_info    0x0000000000000000     0x143f ./lwip-1.4.1/port/FreeRTOS/M2SXXX/sys_arch.o
 .debug_info    0x000000000000143f     0x28c3 ./lwip-1.4.1/netif/etharp.o
 .debug_info    0x0000000000003d02     0x2384 ./lwip-1.4.1/netif/m2sxxx_ethernetif.o
 .debug_info    0x0000000000006086     0x1852 ./lwip-1.4.1/core/ipv4/icmp.o
 .debug_info    0x00000000000078d8     0x1e33 ./lwip-1.4.1/core/ipv4/igmp.o
 .debug_info    0x000000000000970b     0x1166 ./lwip-1.4.1/core/ipv4/inet_chksum.o
 .debug_info    0x000000000000a871     0x22e8 ./lwip-1.4.1/core/ipv4/ip.o
 .debug_info    0x000000000000cb59     0x12fc ./lwip-1.4.1/core/ipv4/ip_addr.o
 .debug_info    0x000000000000de55     0x2177 ./lwip-1.4.1/core/ipv4/ip_frag.o
 .debug_info    0x000000000000ffcc      0xa97 ./lwip-1.4.1/core/def.o
 .debug_info    0x0000000000010a63     0x3cd0 ./lwip-1.4.1/core/dhcp.o
 .debug_info    0x0000000000014733     0x159b ./lwip-1.4.1/core/init.o
 .debug_info    0x0000000000015cce     0x2073 ./lwip-1.4.1/core/lwip_timers.o
 .debug_info    0x0000000000017d41     0x16c5 ./lwip-1.4.1/core/mem.o
 .debug_info    0x0000000000019406     0x1be5 ./lwip-1.4.1/core/memp.o
 .debug_info    0x000000000001afeb     0x1fc1 ./lwip-1.4.1/core/netif.o
 .debug_info    0x000000000001cfac     0x31eb ./lwip-1.4.1/core/pbuf.o
 .debug_info    0x0000000000020197     0x1656 ./lwip-1.4.1/core/raw.o
 .debug_info    0x00000000000217ed      0xab1 ./lwip-1.4.1/core/sys.o
 .debug_info    0x000000000002229e     0x334e ./lwip-1.4.1/core/tcp.o
 .debug_info    0x00000000000255ec     0x2e0e ./lwip-1.4.1/core/tcp_in.o
 .debug_info    0x00000000000283fa     0x3161 ./lwip-1.4.1/core/tcp_out.o
 .debug_info    0x000000000002b55b     0x1e96 ./lwip-1.4.1/core/udp.o
 .debug_info    0x000000000002d3f1     0x3352 ./lwip-1.4.1/api/api_lib.o
 .debug_info    0x0000000000030743     0x4090 ./lwip-1.4.1/api/api_msg.o
 .debug_info    0x00000000000347d3     0x14f9 ./lwip-1.4.1/api/netbuf.o
 .debug_info    0x0000000000035ccc     0x46e7 ./lwip-1.4.1/api/sockets.o
 .debug_info    0x000000000003a3b3     0x1f0a ./lwip-1.4.1/api/tcpip.o
 .debug_info    0x000000000003c2bd       0xde ./drivers_config/sys_config/sys_config_SERDESIF_0.o
 .debug_info    0x000000000003c39b     0x32bf ./drivers/mss_uart/mss_uart.o
 .debug_info    0x000000000003f65a      0xfcb ./drivers/mss_sys_services/mss_comblk.o
 .debug_info    0x0000000000040625     0x25cd ./drivers/mss_spi/mss_spi.o
 .debug_info    0x0000000000042bf2      0x492 ./drivers/mss_ethernet_mac/m88e1340_phy.o
 .debug_info    0x0000000000043084     0x2862 ./drivers/mss_ethernet_mac/mss_ethernet_mac.o
 .debug_info    0x00000000000458e6     0x2937 ./WebServer/httpserver-netconn.o
 .debug_info    0x000000000004821d       0x59 ./WebServer/mscc_logo.o
 .debug_info    0x0000000000048276      0xc47 ./FreeRTOS/portable/MemMang/heap_2.o
 .debug_info    0x0000000000048ebd      0x238 ./FreeRTOS/portable/GCC/ARM_CM3/port.o
 .debug_info    0x00000000000490f5      0xb7b ./FreeRTOS/list.o
 .debug_info    0x0000000000049c70     0x17d9 ./FreeRTOS/queue.o
 .debug_info    0x000000000004b449     0x29c5 ./FreeRTOS/tasks.o
 .debug_info    0x000000000004de0e      0xd69 ./FreeRTOS/timers.o
 .debug_info    0x000000000004eb77     0x1845 ./CMSIS/startup_gcc/newlib_stubs.o
 .debug_info    0x00000000000503bc       0x26 ./CMSIS/startup_gcc/startup_m2sxxx.o
 .debug_info    0x00000000000503e2     0x2402 ./CMSIS/system_m2sxxx.o
 .debug_info    0x00000000000527e4     0x3978 ./main.o
 .debug_info    0x000000000005615c       0xa8 ./mscc_post_hw_cfg_init.o
 .debug_info    0x0000000000056204      0xc5d ./sys_cfg.o
 .debug_info    0x0000000000056e61     0x1817 ./uart_task.o

.debug_abbrev   0x0000000000000000     0xb0a7
 *(.debug_abbrev)
 .debug_abbrev  0x0000000000000000      0x3cb ./lwip-1.4.1/port/FreeRTOS/M2SXXX/sys_arch.o
 .debug_abbrev  0x00000000000003cb      0x509 ./lwip-1.4.1/netif/etharp.o
 .debug_abbrev  0x00000000000008d4      0x4e3 ./lwip-1.4.1/netif/m2sxxx_ethernetif.o
 .debug_abbrev  0x0000000000000db7      0x3fc ./lwip-1.4.1/core/ipv4/icmp.o
 .debug_abbrev  0x00000000000011b3      0x51b ./lwip-1.4.1/core/ipv4/igmp.o
 .debug_abbrev  0x00000000000016ce      0x383 ./lwip-1.4.1/core/ipv4/inet_chksum.o
 .debug_abbrev  0x0000000000001a51      0x418 ./lwip-1.4.1/core/ipv4/ip.o
 .debug_abbrev  0x0000000000001e69      0x3ba ./lwip-1.4.1/core/ipv4/ip_addr.o
 .debug_abbrev  0x0000000000002223      0x4f0 ./lwip-1.4.1/core/ipv4/ip_frag.o
 .debug_abbrev  0x0000000000002713      0x25d ./lwip-1.4.1/core/def.o
 .debug_abbrev  0x0000000000002970      0x553 ./lwip-1.4.1/core/dhcp.o
 .debug_abbrev  0x0000000000002ec3      0x249 ./lwip-1.4.1/core/init.o
 .debug_abbrev  0x000000000000310c      0x3e3 ./lwip-1.4.1/core/lwip_timers.o
 .debug_abbrev  0x00000000000034ef      0x436 ./lwip-1.4.1/core/mem.o
 .debug_abbrev  0x0000000000003925      0x3c7 ./lwip-1.4.1/core/memp.o
 .debug_abbrev  0x0000000000003cec      0x4be ./lwip-1.4.1/core/netif.o
 .debug_abbrev  0x00000000000041aa      0x500 ./lwip-1.4.1/core/pbuf.o
 .debug_abbrev  0x00000000000046aa      0x410 ./lwip-1.4.1/core/raw.o
 .debug_abbrev  0x0000000000004aba      0x24f ./lwip-1.4.1/core/sys.o
 .debug_abbrev  0x0000000000004d09      0x59e ./lwip-1.4.1/core/tcp.o
 .debug_abbrev  0x00000000000052a7      0x4be ./lwip-1.4.1/core/tcp_in.o
 .debug_abbrev  0x0000000000005765      0x506 ./lwip-1.4.1/core/tcp_out.o
 .debug_abbrev  0x0000000000005c6b      0x4b7 ./lwip-1.4.1/core/udp.o
 .debug_abbrev  0x0000000000006122      0x485 ./lwip-1.4.1/api/api_lib.o
 .debug_abbrev  0x00000000000065a7      0x4ea ./lwip-1.4.1/api/api_msg.o
 .debug_abbrev  0x0000000000006a91      0x35c ./lwip-1.4.1/api/netbuf.o
 .debug_abbrev  0x0000000000006ded      0x525 ./lwip-1.4.1/api/sockets.o
 .debug_abbrev  0x0000000000007312      0x46d ./lwip-1.4.1/api/tcpip.o
 .debug_abbrev  0x000000000000777f       0x8a ./drivers_config/sys_config/sys_config_SERDESIF_0.o
 .debug_abbrev  0x0000000000007809      0x426 ./drivers/mss_uart/mss_uart.o
 .debug_abbrev  0x0000000000007c2f      0x358 ./drivers/mss_sys_services/mss_comblk.o
 .debug_abbrev  0x0000000000007f87      0x43a ./drivers/mss_spi/mss_spi.o
 .debug_abbrev  0x00000000000083c1      0x16d ./drivers/mss_ethernet_mac/m88e1340_phy.o
 .debug_abbrev  0x000000000000852e      0x499 ./drivers/mss_ethernet_mac/mss_ethernet_mac.o
 .debug_abbrev  0x00000000000089c7      0x440 ./WebServer/httpserver-netconn.o
 .debug_abbrev  0x0000000000008e07       0x47 ./WebServer/mscc_logo.o
 .debug_abbrev  0x0000000000008e4e      0x31b ./FreeRTOS/portable/MemMang/heap_2.o
 .debug_abbrev  0x0000000000009169      0x166 ./FreeRTOS/portable/GCC/ARM_CM3/port.o
 .debug_abbrev  0x00000000000092cf      0x217 ./FreeRTOS/list.o
 .debug_abbrev  0x00000000000094e6      0x35d ./FreeRTOS/queue.o
 .debug_abbrev  0x0000000000009843      0x41d ./FreeRTOS/tasks.o
 .debug_abbrev  0x0000000000009c60      0x2bb ./FreeRTOS/timers.o
 .debug_abbrev  0x0000000000009f1b      0x3e1 ./CMSIS/startup_gcc/newlib_stubs.o
 .debug_abbrev  0x000000000000a2fc       0x14 ./CMSIS/startup_gcc/startup_m2sxxx.o
 .debug_abbrev  0x000000000000a310      0x322 ./CMSIS/system_m2sxxx.o
 .debug_abbrev  0x000000000000a632      0x4b8 ./main.o
 .debug_abbrev  0x000000000000aaea       0x6d ./mscc_post_hw_cfg_init.o
 .debug_abbrev  0x000000000000ab57      0x195 ./sys_cfg.o
 .debug_abbrev  0x000000000000acec      0x3bb ./uart_task.o

.debug_line     0x0000000000000000    0x31c5b
 *(.debug_line)
 .debug_line    0x0000000000000000      0x92a ./lwip-1.4.1/port/FreeRTOS/M2SXXX/sys_arch.o
 .debug_line    0x000000000000092a     0x1824 ./lwip-1.4.1/netif/etharp.o
 .debug_line    0x000000000000214e      0xa2a ./lwip-1.4.1/netif/m2sxxx_ethernetif.o
 .debug_line    0x0000000000002b78      0xb64 ./lwip-1.4.1/core/ipv4/icmp.o
 .debug_line    0x00000000000036dc      0xf71 ./lwip-1.4.1/core/ipv4/igmp.o
 .debug_line    0x000000000000464d      0x872 ./lwip-1.4.1/core/ipv4/inet_chksum.o
 .debug_line    0x0000000000004ebf      0xc17 ./lwip-1.4.1/core/ipv4/ip.o
 .debug_line    0x0000000000005ad6      0x8c8 ./lwip-1.4.1/core/ipv4/ip_addr.o
 .debug_line    0x000000000000639e     0x1342 ./lwip-1.4.1/core/ipv4/ip_frag.o
 .debug_line    0x00000000000076e0      0x3f8 ./lwip-1.4.1/core/def.o
 .debug_line    0x0000000000007ad8     0x304e ./lwip-1.4.1/core/dhcp.o
 .debug_line    0x000000000000ab26      0x59d ./lwip-1.4.1/core/init.o
 .debug_line    0x000000000000b0c3      0x9f0 ./lwip-1.4.1/core/lwip_timers.o
 .debug_line    0x000000000000bab3     0x1195 ./lwip-1.4.1/core/mem.o
 .debug_line    0x000000000000cc48      0xa9f ./lwip-1.4.1/core/memp.o
 .debug_line    0x000000000000d6e7      0xa98 ./lwip-1.4.1/core/netif.o
 .debug_line    0x000000000000e17f     0x29cd ./lwip-1.4.1/core/pbuf.o
 .debug_line    0x0000000000010b4c      0x7e4 ./lwip-1.4.1/core/raw.o
 .debug_line    0x0000000000011330      0x4ba ./lwip-1.4.1/core/sys.o
 .debug_line    0x00000000000117ea     0x27b0 ./lwip-1.4.1/core/tcp.o
 .debug_line    0x0000000000013f9a     0x27db ./lwip-1.4.1/core/tcp_in.o
 .debug_line    0x0000000000016775     0x2111 ./lwip-1.4.1/core/tcp_out.o
 .debug_line    0x0000000000018886      0xea2 ./lwip-1.4.1/core/udp.o
 .debug_line    0x0000000000019728     0x230f ./lwip-1.4.1/api/api_lib.o
 .debug_line    0x000000000001ba37     0x3079 ./lwip-1.4.1/api/api_msg.o
 .debug_line    0x000000000001eab0      0xdf0 ./lwip-1.4.1/api/netbuf.o
 .debug_line    0x000000000001f8a0     0x3337 ./lwip-1.4.1/api/sockets.o
 .debug_line    0x0000000000022bd7      0xadf ./lwip-1.4.1/api/tcpip.o
 .debug_line    0x00000000000236b6      0x16f ./drivers_config/sys_config/sys_config_SERDESIF_0.o
 .debug_line    0x0000000000023825     0x2ce6 ./drivers/mss_uart/mss_uart.o
 .debug_line    0x000000000002650b      0xc5c ./drivers/mss_sys_services/mss_comblk.o
 .debug_line    0x0000000000027167     0x1c18 ./drivers/mss_spi/mss_spi.o
 .debug_line    0x0000000000028d7f      0x3d5 ./drivers/mss_ethernet_mac/m88e1340_phy.o
 .debug_line    0x0000000000029154     0x1425 ./drivers/mss_ethernet_mac/mss_ethernet_mac.o
 .debug_line    0x000000000002a579      0xcc6 ./WebServer/httpserver-netconn.o
 .debug_line    0x000000000002b23f       0x39 ./WebServer/mscc_logo.o
 .debug_line    0x000000000002b278      0x4da ./FreeRTOS/portable/MemMang/heap_2.o
 .debug_line    0x000000000002b752      0x424 ./FreeRTOS/portable/GCC/ARM_CM3/port.o
 .debug_line    0x000000000002bb76      0x544 ./FreeRTOS/list.o
 .debug_line    0x000000000002c0ba      0xeda ./FreeRTOS/queue.o
 .debug_line    0x000000000002cf94     0x1a1e ./FreeRTOS/tasks.o
 .debug_line    0x000000000002e9b2      0x7ac ./FreeRTOS/timers.o
 .debug_line    0x000000000002f15e      0x5f6 ./CMSIS/startup_gcc/newlib_stubs.o
 .debug_line    0x000000000002f754      0x18e ./CMSIS/startup_gcc/startup_m2sxxx.o
 .debug_line    0x000000000002f8e2      0x43f ./CMSIS/system_m2sxxx.o
 .debug_line    0x000000000002fd21     0x12c8 ./main.o
 .debug_line    0x0000000000030fe9      0x177 ./mscc_post_hw_cfg_init.o
 .debug_line    0x0000000000031160      0x333 ./sys_cfg.o
 .debug_line    0x0000000000031493      0x7c8 ./uart_task.o

.debug_frame    0x0000000000000000     0x4c44
 *(.debug_frame)
 .debug_frame   0x0000000000000000      0x1e8 ./lwip-1.4.1/port/FreeRTOS/M2SXXX/sys_arch.o
 .debug_frame   0x00000000000001e8      0x184 ./lwip-1.4.1/netif/etharp.o
 .debug_frame   0x000000000000036c       0xc8 ./lwip-1.4.1/netif/m2sxxx_ethernetif.o
 .debug_frame   0x0000000000000434       0x98 ./lwip-1.4.1/core/ipv4/icmp.o
 .debug_frame   0x00000000000004cc      0x1b0 ./lwip-1.4.1/core/ipv4/igmp.o
 .debug_frame   0x000000000000067c       0xc4 ./lwip-1.4.1/core/ipv4/inet_chksum.o
 .debug_frame   0x0000000000000740       0xc8 ./lwip-1.4.1/core/ipv4/ip.o
 .debug_frame   0x0000000000000808       0xf0 ./lwip-1.4.1/core/ipv4/ip_addr.o
 .debug_frame   0x00000000000008f8      0x118 ./lwip-1.4.1/core/ipv4/ip_frag.o
 .debug_frame   0x0000000000000a10       0x58 ./lwip-1.4.1/core/def.o
 .debug_frame   0x0000000000000a68      0x358 ./lwip-1.4.1/core/dhcp.o
 .debug_frame   0x0000000000000dc0       0x28 ./lwip-1.4.1/core/init.o
 .debug_frame   0x0000000000000de8      0x12c ./lwip-1.4.1/core/lwip_timers.o
 .debug_frame   0x0000000000000f14       0xc0 ./lwip-1.4.1/core/mem.o
 .debug_frame   0x0000000000000fd4       0x74 ./lwip-1.4.1/core/memp.o
 .debug_frame   0x0000000000001048      0x140 ./lwip-1.4.1/core/netif.o
 .debug_frame   0x0000000000001188      0x2ac ./lwip-1.4.1/core/pbuf.o
 .debug_frame   0x0000000000001434       0xd4 ./lwip-1.4.1/core/raw.o
 .debug_frame   0x0000000000001508       0x30 ./lwip-1.4.1/core/sys.o
 .debug_frame   0x0000000000001538      0x3d4 ./lwip-1.4.1/core/tcp.o
 .debug_frame   0x000000000000190c       0x9c ./lwip-1.4.1/core/tcp_in.o
 .debug_frame   0x00000000000019a8      0x20c ./lwip-1.4.1/core/tcp_out.o
 .debug_frame   0x0000000000001bb4      0x14c ./lwip-1.4.1/core/udp.o
 .debug_frame   0x0000000000001d00      0x29c ./lwip-1.4.1/api/api_lib.o
 .debug_frame   0x0000000000001f9c      0x30c ./lwip-1.4.1/api/api_msg.o
 .debug_frame   0x00000000000022a8       0xf8 ./lwip-1.4.1/api/netbuf.o
 .debug_frame   0x00000000000023a0      0x3c4 ./lwip-1.4.1/api/sockets.o
 .debug_frame   0x0000000000002764      0x178 ./lwip-1.4.1/api/tcpip.o
 .debug_frame   0x00000000000028dc      0x468 ./drivers/mss_uart/mss_uart.o
 .debug_frame   0x0000000000002d44      0x134 ./drivers/mss_sys_services/mss_comblk.o
 .debug_frame   0x0000000000002e78      0x2ac ./drivers/mss_spi/mss_spi.o
 .debug_frame   0x0000000000003124       0x88 ./drivers/mss_ethernet_mac/m88e1340_phy.o
 .debug_frame   0x00000000000031ac      0x170 ./drivers/mss_ethernet_mac/mss_ethernet_mac.o
 .debug_frame   0x000000000000331c       0x5c ./WebServer/httpserver-netconn.o
 .debug_frame   0x0000000000003378       0x70 ./FreeRTOS/portable/MemMang/heap_2.o
 .debug_frame   0x00000000000033e8       0xc0 ./FreeRTOS/portable/GCC/ARM_CM3/port.o
 .debug_frame   0x00000000000034a8       0x6c ./FreeRTOS/list.o
 .debug_frame   0x0000000000003514      0x234 ./FreeRTOS/queue.o
 .debug_frame   0x0000000000003748      0x4c0 ./FreeRTOS/tasks.o
 .debug_frame   0x0000000000003c08      0x11c ./FreeRTOS/timers.o
 .debug_frame   0x0000000000003d24      0x174 ./CMSIS/startup_gcc/newlib_stubs.o
 .debug_frame   0x0000000000003e98       0x5c ./CMSIS/system_m2sxxx.o
 .debug_frame   0x0000000000003ef4       0xf4 ./main.o
 .debug_frame   0x0000000000003fe8       0x20 ./mscc_post_hw_cfg_init.o
 .debug_frame   0x0000000000004008       0x40 ./sys_cfg.o
 .debug_frame   0x0000000000004048       0x88 ./uart_task.o
 .debug_frame   0x00000000000040d0       0x40 /home/jerryneedell/Microchip/SoftConsole-v6.4/arm-none-eabi-gcc/bin/../lib/gcc/arm-none-eabi/9.2.1/../../../../arm-none-eabi/lib/thumb/v7-m/nofp/libg_nano.a(lib_a-assert.o)
 .debug_frame   0x0000000000004110       0x20 /home/jerryneedell/Microchip/SoftConsole-v6.4/arm-none-eabi-gcc/bin/../lib/gcc/arm-none-eabi/9.2.1/../../../../arm-none-eabi/lib/thumb/v7-m/nofp/libg_nano.a(lib_a-errno.o)
 .debug_frame   0x0000000000004130       0x64 /home/jerryneedell/Microchip/SoftConsole-v6.4/arm-none-eabi-gcc/bin/../lib/gcc/arm-none-eabi/9.2.1/../../../../arm-none-eabi/lib/thumb/v7-m/nofp/libg_nano.a(lib_a-fprintf.o)
 .debug_frame   0x0000000000004194       0x2c /home/jerryneedell/Microchip/SoftConsole-v6.4/arm-none-eabi-gcc/bin/../lib/gcc/arm-none-eabi/9.2.1/../../../../arm-none-eabi/lib/thumb/v7-m/nofp/libg_nano.a(lib_a-init.o)
 .debug_frame   0x00000000000041c0       0x2c /home/jerryneedell/Microchip/SoftConsole-v6.4/arm-none-eabi-gcc/bin/../lib/gcc/arm-none-eabi/9.2.1/../../../../arm-none-eabi/lib/thumb/v7-m/nofp/libg_nano.a(lib_a-memcmp.o)
 .debug_frame   0x00000000000041ec       0x28 /home/jerryneedell/Microchip/SoftConsole-v6.4/arm-none-eabi-gcc/bin/../lib/gcc/arm-none-eabi/9.2.1/../../../../arm-none-eabi/lib/thumb/v7-m/nofp/libg_nano.a(lib_a-memcpy-stub.o)
 .debug_frame   0x0000000000004214       0x20 /home/jerryneedell/Microchip/SoftConsole-v6.4/arm-none-eabi-gcc/bin/../lib/gcc/arm-none-eabi/9.2.1/../../../../arm-none-eabi/lib/thumb/v7-m/nofp/libg_nano.a(lib_a-memset.o)
 .debug_frame   0x0000000000004234       0xac /home/jerryneedell/Microchip/SoftConsole-v6.4/arm-none-eabi-gcc/bin/../lib/gcc/arm-none-eabi/9.2.1/../../../../arm-none-eabi/lib/thumb/v7-m/nofp/libg_nano.a(lib_a-nano-vfprintf.o)
 .debug_frame   0x00000000000042e0       0x60 /home/jerryneedell/Microchip/SoftConsole-v6.4/arm-none-eabi-gcc/bin/../lib/gcc/arm-none-eabi/9.2.1/../../../../arm-none-eabi/lib/thumb/v7-m/nofp/libg_nano.a(lib_a-nano-vfprintf_i.o)
 .debug_frame   0x0000000000004340       0x7c /home/jerryneedell/Microchip/SoftConsole-v6.4/arm-none-eabi-gcc/bin/../lib/gcc/arm-none-eabi/9.2.1/../../../../arm-none-eabi/lib/thumb/v7-m/nofp/libg_nano.a(lib_a-snprintf.o)
 .debug_frame   0x00000000000043bc       0x28 /home/jerryneedell/Microchip/SoftConsole-v6.4/arm-none-eabi-gcc/bin/../lib/gcc/arm-none-eabi/9.2.1/../../../../arm-none-eabi/lib/thumb/v7-m/nofp/libg_nano.a(lib_a-strncpy.o)
 .debug_frame   0x00000000000043e4       0x40 /home/jerryneedell/Microchip/SoftConsole-v6.4/arm-none-eabi-gcc/bin/../lib/gcc/arm-none-eabi/9.2.1/../../../../arm-none-eabi/lib/thumb/v7-m/nofp/libg_nano.a(lib_a-wbuf.o)
 .debug_frame   0x0000000000004424       0x2c /home/jerryneedell/Microchip/SoftConsole-v6.4/arm-none-eabi-gcc/bin/../lib/gcc/arm-none-eabi/9.2.1/../../../../arm-none-eabi/lib/thumb/v7-m/nofp/libg_nano.a(lib_a-wsetup.o)
 .debug_frame   0x0000000000004450       0x28 /home/jerryneedell/Microchip/SoftConsole-v6.4/arm-none-eabi-gcc/bin/../lib/gcc/arm-none-eabi/9.2.1/../../../../arm-none-eabi/lib/thumb/v7-m/nofp/libg_nano.a(lib_a-abort.o)
 .debug_frame   0x0000000000004478       0x5c /home/jerryneedell/Microchip/SoftConsole-v6.4/arm-none-eabi-gcc/bin/../lib/gcc/arm-none-eabi/9.2.1/../../../../arm-none-eabi/lib/thumb/v7-m/nofp/libg_nano.a(lib_a-fflush.o)
 .debug_frame   0x00000000000044d4      0x14c /home/jerryneedell/Microchip/SoftConsole-v6.4/arm-none-eabi-gcc/bin/../lib/gcc/arm-none-eabi/9.2.1/../../../../arm-none-eabi/lib/thumb/v7-m/nofp/libg_nano.a(lib_a-findfp.o)
 .debug_frame   0x0000000000004620       0x54 /home/jerryneedell/Microchip/SoftConsole-v6.4/arm-none-eabi-gcc/bin/../lib/gcc/arm-none-eabi/9.2.1/../../../../arm-none-eabi/lib/thumb/v7-m/nofp/libg_nano.a(lib_a-fwalk.o)
 .debug_frame   0x0000000000004674       0xb0 /home/jerryneedell/Microchip/SoftConsole-v6.4/arm-none-eabi-gcc/bin/../lib/gcc/arm-none-eabi/9.2.1/../../../../arm-none-eabi/lib/thumb/v7-m/nofp/libg_nano.a(lib_a-lock.o)
 .debug_frame   0x0000000000004724       0x58 /home/jerryneedell/Microchip/SoftConsole-v6.4/arm-none-eabi-gcc/bin/../lib/gcc/arm-none-eabi/9.2.1/../../../../arm-none-eabi/lib/thumb/v7-m/nofp/libg_nano.a(lib_a-makebuf.o)
 .debug_frame   0x000000000000477c       0x28 /home/jerryneedell/Microchip/SoftConsole-v6.4/arm-none-eabi-gcc/bin/../lib/gcc/arm-none-eabi/9.2.1/../../../../arm-none-eabi/lib/thumb/v7-m/nofp/libg_nano.a(lib_a-memchr-stub.o)
 .debug_frame   0x00000000000047a4       0x28 /home/jerryneedell/Microchip/SoftConsole-v6.4/arm-none-eabi-gcc/bin/../lib/gcc/arm-none-eabi/9.2.1/../../../../arm-none-eabi/lib/thumb/v7-m/nofp/libg_nano.a(lib_a-memmove.o)
 .debug_frame   0x00000000000047cc       0x38 /home/jerryneedell/Microchip/SoftConsole-v6.4/arm-none-eabi-gcc/bin/../lib/gcc/arm-none-eabi/9.2.1/../../../../arm-none-eabi/lib/thumb/v7-m/nofp/libg_nano.a(lib_a-nano-freer.o)
 .debug_frame   0x0000000000004804       0x30 /home/jerryneedell/Microchip/SoftConsole-v6.4/arm-none-eabi-gcc/bin/../lib/gcc/arm-none-eabi/9.2.1/../../../../arm-none-eabi/lib/thumb/v7-m/nofp/libg_nano.a(lib_a-nano-mallocr.o)
 .debug_frame   0x0000000000004834       0x3c /home/jerryneedell/Microchip/SoftConsole-v6.4/arm-none-eabi-gcc/bin/../lib/gcc/arm-none-eabi/9.2.1/../../../../arm-none-eabi/lib/thumb/v7-m/nofp/libg_nano.a(lib_a-nano-reallocr.o)
 .debug_frame   0x0000000000004870       0x90 /home/jerryneedell/Microchip/SoftConsole-v6.4/arm-none-eabi-gcc/bin/../lib/gcc/arm-none-eabi/9.2.1/../../../../arm-none-eabi/lib/thumb/v7-m/nofp/libg_nano.a(lib_a-nano-svfprintf.o)
 .debug_frame   0x0000000000004900       0x2c /home/jerryneedell/Microchip/SoftConsole-v6.4/arm-none-eabi-gcc/bin/../lib/gcc/arm-none-eabi/9.2.1/../../../../arm-none-eabi/lib/thumb/v7-m/nofp/libg_nano.a(lib_a-sbrkr.o)
 .debug_frame   0x000000000000492c       0xcc /home/jerryneedell/Microchip/SoftConsole-v6.4/arm-none-eabi-gcc/bin/../lib/gcc/arm-none-eabi/9.2.1/../../../../arm-none-eabi/lib/thumb/v7-m/nofp/libg_nano.a(lib_a-signal.o)
 .debug_frame   0x00000000000049f8       0x3c /home/jerryneedell/Microchip/SoftConsole-v6.4/arm-none-eabi-gcc/bin/../lib/gcc/arm-none-eabi/9.2.1/../../../../arm-none-eabi/lib/thumb/v7-m/nofp/libg_nano.a(lib_a-signalr.o)
 .debug_frame   0x0000000000004a34       0x88 /home/jerryneedell/Microchip/SoftConsole-v6.4/arm-none-eabi-gcc/bin/../lib/gcc/arm-none-eabi/9.2.1/../../../../arm-none-eabi/lib/thumb/v7-m/nofp/libg_nano.a(lib_a-stdio.o)
 .debug_frame   0x0000000000004abc       0x2c /home/jerryneedell/Microchip/SoftConsole-v6.4/arm-none-eabi-gcc/bin/../lib/gcc/arm-none-eabi/9.2.1/../../../../arm-none-eabi/lib/thumb/v7-m/nofp/libg_nano.a(lib_a-closer.o)
 .debug_frame   0x0000000000004ae8       0x2c /home/jerryneedell/Microchip/SoftConsole-v6.4/arm-none-eabi-gcc/bin/../lib/gcc/arm-none-eabi/9.2.1/../../../../arm-none-eabi/lib/thumb/v7-m/nofp/libg_nano.a(lib_a-fstatr.o)
 .debug_frame   0x0000000000004b14       0x2c /home/jerryneedell/Microchip/SoftConsole-v6.4/arm-none-eabi-gcc/bin/../lib/gcc/arm-none-eabi/9.2.1/../../../../arm-none-eabi/lib/thumb/v7-m/nofp/libg_nano.a(lib_a-isattyr.o)
 .debug_frame   0x0000000000004b40       0x2c /home/jerryneedell/Microchip/SoftConsole-v6.4/arm-none-eabi-gcc/bin/../lib/gcc/arm-none-eabi/9.2.1/../../../../arm-none-eabi/lib/thumb/v7-m/nofp/libg_nano.a(lib_a-lseekr.o)
 .debug_frame   0x0000000000004b6c       0x30 /home/jerryneedell/Microchip/SoftConsole-v6.4/arm-none-eabi-gcc/bin/../lib/gcc/arm-none-eabi/9.2.1/../../../../arm-none-eabi/lib/thumb/v7-m/nofp/libg_nano.a(lib_a-mlock.o)
 .debug_frame   0x0000000000004b9c       0x20 /home/jerryneedell/Microchip/SoftConsole-v6.4/arm-none-eabi-gcc/bin/../lib/gcc/arm-none-eabi/9.2.1/../../../../arm-none-eabi/lib/thumb/v7-m/nofp/libg_nano.a(lib_a-nano-msizer.o)
 .debug_frame   0x0000000000004bbc       0x2c /home/jerryneedell/Microchip/SoftConsole-v6.4/arm-none-eabi-gcc/bin/../lib/gcc/arm-none-eabi/9.2.1/../../../../arm-none-eabi/lib/thumb/v7-m/nofp/libg_nano.a(lib_a-readr.o)
 .debug_frame   0x0000000000004be8       0x5c /home/jerryneedell/Microchip/SoftConsole-v6.4/arm-none-eabi-gcc/bin/../lib/gcc/arm-none-eabi/9.2.1/../../../../arm-none-eabi/lib/thumb/v7-m/nofp/libg_nano.a(lib_a-reent.o)

.debug_str      0x0000000000000000     0x9d8b
 *(.debug_str)
 .debug_str     0x0000000000000000      0x8d8 ./lwip-1.4.1/port/FreeRTOS/M2SXXX/sys_arch.o
                                        0x9f8 (size before relaxing)
 .debug_str     0x00000000000008d8      0x6d1 ./lwip-1.4.1/netif/etharp.o
                                        0xe1c (size before relaxing)
 .debug_str     0x0000000000000fa9      0xfb3 ./lwip-1.4.1/netif/m2sxxx_ethernetif.o
                                       0x196e (size before relaxing)
 .debug_str     0x0000000000001f5c      0x148 ./lwip-1.4.1/core/ipv4/icmp.o
                                        0xa9d (size before relaxing)
 .debug_str     0x00000000000020a4      0x2db ./lwip-1.4.1/core/ipv4/igmp.o
                                        0xc9e (size before relaxing)
 .debug_str     0x000000000000237f       0x9f ./lwip-1.4.1/core/ipv4/inet_chksum.o
                                        0x80f (size before relaxing)
 .debug_str     0x000000000000241e      0x371 ./lwip-1.4.1/core/ipv4/ip.o
                                        0xf84 (size before relaxing)
 .debug_str     0x000000000000278f       0x90 ./lwip-1.4.1/core/ipv4/ip_addr.o
                                        0x8c2 (size before relaxing)
 .debug_str     0x000000000000281f      0x2a4 ./lwip-1.4.1/core/ipv4/ip_frag.o
                                        0xd65 (size before relaxing)
 .debug_str     0x0000000000002ac3       0x24 ./lwip-1.4.1/core/def.o
                                        0x645 (size before relaxing)
 .debug_str     0x0000000000002ae7      0x3a6 ./lwip-1.4.1/core/dhcp.o
                                        0xee6 (size before relaxing)
 .debug_str     0x0000000000002e8d       0x6c ./lwip-1.4.1/core/init.o
                                        0xc12 (size before relaxing)
 .debug_str     0x0000000000002ef9      0x122 ./lwip-1.4.1/core/lwip_timers.o
                                       0x1048 (size before relaxing)
 .debug_str     0x000000000000301b       0x85 ./lwip-1.4.1/core/mem.o
                                        0x855 (size before relaxing)
 .debug_str     0x00000000000030a0       0x65 ./lwip-1.4.1/core/memp.o
                                        0xdfa (size before relaxing)
 .debug_str     0x0000000000003105       0xb4 ./lwip-1.4.1/core/netif.o
                                        0xeeb (size before relaxing)
 .debug_str     0x00000000000031b9      0x1f7 ./lwip-1.4.1/core/pbuf.o
                                       0x10b1 (size before relaxing)
 .debug_str     0x00000000000033b0       0x96 ./lwip-1.4.1/core/raw.o
                                        0xb0d (size before relaxing)
 .debug_str     0x0000000000003446       0x2d ./lwip-1.4.1/core/sys.o
                                        0x6a9 (size before relaxing)
 .debug_str     0x0000000000003473      0x391 ./lwip-1.4.1/core/tcp.o
                                       0x114a (size before relaxing)
 .debug_str     0x0000000000003804      0x158 ./lwip-1.4.1/core/tcp_in.o
                                        0xfd5 (size before relaxing)
 .debug_str     0x000000000000395c      0x12d ./lwip-1.4.1/core/tcp_out.o
                                       0x1030 (size before relaxing)
 .debug_str     0x0000000000003a89       0x87 ./lwip-1.4.1/core/udp.o
                                        0xdb8 (size before relaxing)
 .debug_str     0x0000000000003b10      0x3cd ./lwip-1.4.1/api/api_lib.o
                                       0x116d (size before relaxing)
 .debug_str     0x0000000000003edd      0x1b0 ./lwip-1.4.1/api/api_msg.o
                                       0x13ac (size before relaxing)
 .debug_str     0x000000000000408d       0x86 ./lwip-1.4.1/api/netbuf.o
                                        0x962 (size before relaxing)
 .debug_str     0x0000000000004113      0x492 ./lwip-1.4.1/api/sockets.o
                                       0x156c (size before relaxing)
 .debug_str     0x00000000000045a5      0x1a1 ./lwip-1.4.1/api/tcpip.o
                                        0xf4b (size before relaxing)
 .debug_str     0x0000000000004746       0x67 ./drivers_config/sys_config/sys_config_SERDESIF_0.o
                                        0x23d (size before relaxing)
 .debug_str     0x00000000000047ad      0xbd5 ./drivers/mss_uart/mss_uart.o
                                       0x1b25 (size before relaxing)
 .debug_str     0x0000000000005382      0x32c ./drivers/mss_sys_services/mss_comblk.o
                                        0xb75 (size before relaxing)
 .debug_str     0x00000000000056ae      0x695 ./drivers/mss_spi/mss_spi.o
                                       0x1a61 (size before relaxing)
 .debug_str     0x0000000000005d43      0x179 ./drivers/mss_ethernet_mac/m88e1340_phy.o
                                        0x44b (size before relaxing)
 .debug_str     0x0000000000005ebc      0xb97 ./drivers/mss_ethernet_mac/mss_ethernet_mac.o
                                       0x1def (size before relaxing)
 .debug_str     0x0000000000006a53      0x19d ./WebServer/httpserver-netconn.o
                                       0x17a6 (size before relaxing)
 .debug_str     0x0000000000006bf0       0x19 ./WebServer/mscc_logo.o
                                        0x171 (size before relaxing)
 .debug_str     0x0000000000006c09      0x19d ./FreeRTOS/portable/MemMang/heap_2.o
                                        0x782 (size before relaxing)
 .debug_str     0x0000000000006da6      0x125 ./FreeRTOS/portable/GCC/ARM_CM3/port.o
                                        0x355 (size before relaxing)
 .debug_str     0x0000000000006ecb      0x126 ./FreeRTOS/list.o
                                        0x71b (size before relaxing)
 .debug_str     0x0000000000006ff1      0x3c2 ./FreeRTOS/queue.o
                                        0xb6f (size before relaxing)
 .debug_str     0x00000000000073b3      0x819 ./FreeRTOS/tasks.o
                                       0x1159 (size before relaxing)
 .debug_str     0x0000000000007bcc      0x324 ./FreeRTOS/timers.o
                                        0x790 (size before relaxing)
 .debug_str     0x0000000000007ef0      0x249 ./CMSIS/startup_gcc/newlib_stubs.o
                                        0xfee (size before relaxing)
 .debug_str     0x0000000000008139       0x34 ./CMSIS/startup_gcc/startup_m2sxxx.o
                                         0x99 (size before relaxing)
 .debug_str     0x000000000000816d     0x16c0 ./CMSIS/system_m2sxxx.o
                                       0x21e6 (size before relaxing)
 .debug_str     0x000000000000982d      0x396 ./main.o
                                       0x1d11 (size before relaxing)
 .debug_str     0x0000000000009bc3       0x1b ./mscc_post_hw_cfg_init.o
                                        0x20c (size before relaxing)
 .debug_str     0x0000000000009bde       0x92 ./sys_cfg.o
                                        0xbb6 (size before relaxing)
 .debug_str     0x0000000000009c70      0x11b ./uart_task.o
                                       0x100b (size before relaxing)

.debug_loc      0x0000000000000000    0x258e0
 *(.debug_loc)
 .debug_loc     0x0000000000000000      0x5ff ./lwip-1.4.1/port/FreeRTOS/M2SXXX/sys_arch.o
 .debug_loc     0x00000000000005ff     0x162c ./lwip-1.4.1/netif/etharp.o
 .debug_loc     0x0000000000001c2b      0x517 ./lwip-1.4.1/netif/m2sxxx_ethernetif.o
 .debug_loc     0x0000000000002142      0x556 ./lwip-1.4.1/core/ipv4/icmp.o
 .debug_loc     0x0000000000002698      0xb62 ./lwip-1.4.1/core/ipv4/igmp.o
 .debug_loc     0x00000000000031fa      0x8d5 ./lwip-1.4.1/core/ipv4/inet_chksum.o
 .debug_loc     0x0000000000003acf      0x7f5 ./lwip-1.4.1/core/ipv4/ip.o
 .debug_loc     0x00000000000042c4      0x816 ./lwip-1.4.1/core/ipv4/ip_addr.o
 .debug_loc     0x0000000000004ada     0x1380 ./lwip-1.4.1/core/ipv4/ip_frag.o
 .debug_loc     0x0000000000005e5a       0xa9 ./lwip-1.4.1/core/def.o
 .debug_loc     0x0000000000005f03     0x26ba ./lwip-1.4.1/core/dhcp.o
 .debug_loc     0x00000000000085bd      0x3a7 ./lwip-1.4.1/core/lwip_timers.o
 .debug_loc     0x0000000000008964      0xa63 ./lwip-1.4.1/core/mem.o
 .debug_loc     0x00000000000093c7      0x46c ./lwip-1.4.1/core/memp.o
 .debug_loc     0x0000000000009833      0x583 ./lwip-1.4.1/core/netif.o
 .debug_loc     0x0000000000009db6     0x2898 ./lwip-1.4.1/core/pbuf.o
 .debug_loc     0x000000000000c64e      0x58e ./lwip-1.4.1/core/raw.o
 .debug_loc     0x000000000000cbdc       0x44 ./lwip-1.4.1/core/sys.o
 .debug_loc     0x000000000000cc20     0x1e33 ./lwip-1.4.1/core/tcp.o
 .debug_loc     0x000000000000ea53     0x13dc ./lwip-1.4.1/core/tcp_in.o
 .debug_loc     0x000000000000fe2f     0x208b ./lwip-1.4.1/core/tcp_out.o
 .debug_loc     0x0000000000011eba      0xb17 ./lwip-1.4.1/core/udp.o
 .debug_loc     0x00000000000129d1     0x1cc4 ./lwip-1.4.1/api/api_lib.o
 .debug_loc     0x0000000000014695     0x21af ./lwip-1.4.1/api/api_msg.o
 .debug_loc     0x0000000000016844      0x8e2 ./lwip-1.4.1/api/netbuf.o
 .debug_loc     0x0000000000017126     0x3ec4 ./lwip-1.4.1/api/sockets.o
 .debug_loc     0x000000000001afea      0x543 ./lwip-1.4.1/api/tcpip.o
 .debug_loc     0x000000000001b52d     0x2829 ./drivers/mss_uart/mss_uart.o
 .debug_loc     0x000000000001dd56      0x9de ./drivers/mss_sys_services/mss_comblk.o
 .debug_loc     0x000000000001e734      0xf74 ./drivers/mss_spi/mss_spi.o
 .debug_loc     0x000000000001f6a8      0x297 ./drivers/mss_ethernet_mac/m88e1340_phy.o
 .debug_loc     0x000000000001f93f     0x124c ./drivers/mss_ethernet_mac/mss_ethernet_mac.o
 .debug_loc     0x0000000000020b8b      0x60a ./WebServer/httpserver-netconn.o
 .debug_loc     0x0000000000021195      0x2d5 ./FreeRTOS/portable/MemMang/heap_2.o
 .debug_loc     0x000000000002146a       0x6d ./FreeRTOS/portable/GCC/ARM_CM3/port.o
 .debug_loc     0x00000000000214d7       0x6e ./FreeRTOS/list.o
 .debug_loc     0x0000000000021545      0xbeb ./FreeRTOS/queue.o
 .debug_loc     0x0000000000022130     0x15e2 ./FreeRTOS/tasks.o
 .debug_loc     0x0000000000023712      0x889 ./FreeRTOS/timers.o
 .debug_loc     0x0000000000023f9b      0x465 ./CMSIS/startup_gcc/newlib_stubs.o
 .debug_loc     0x0000000000024400      0x27f ./CMSIS/system_m2sxxx.o
 .debug_loc     0x000000000002467f     0x1024 ./main.o
 .debug_loc     0x00000000000256a3       0x5d ./sys_cfg.o
 .debug_loc     0x0000000000025700      0x1e0 ./uart_task.o

.debug_macinfo
 *(.debug_macinfo)

.debug_weaknames
 *(.debug_weaknames)

.debug_funcnames
 *(.debug_funcnames)

.debug_typenames
 *(.debug_typenames)

.debug_varnames
 *(.debug_varnames)

.note.gnu.arm.ident
 *(.note.gnu.arm.ident)

.ARM.attributes
                0x0000000000000000       0x29
 *(.ARM.attributes)
 .ARM.attributes
                0x0000000000000000       0x1d /home/jerryneedell/Microchip/SoftConsole-v6.4/arm-none-eabi-gcc/bin/../lib/gcc/arm-none-eabi/9.2.1/thumb/v7-m/nofp/crti.o
 .ARM.attributes
                0x000000000000001d       0x2d /home/jerryneedell/Microchip/SoftConsole-v6.4/arm-none-eabi-gcc/bin/../lib/gcc/arm-none-eabi/9.2.1/thumb/v7-m/nofp/crtbegin.o
 .ARM.attributes
                0x000000000000004a       0x1b /home/jerryneedell/Microchip/SoftConsole-v6.4/arm-none-eabi-gcc/bin/../lib/gcc/arm-none-eabi/9.2.1/../../../../arm-none-eabi/lib/thumb/v7-m/nofp/crt0.o
 .ARM.attributes
                0x0000000000000065       0x2d ./lwip-1.4.1/port/FreeRTOS/M2SXXX/sys_arch.o
 .ARM.attributes
                0x0000000000000092       0x33 ./lwip-1.4.1/netif/ppp/auth.o
 .ARM.attributes
                0x00000000000000c5       0x33 ./lwip-1.4.1/netif/ppp/chap.o
 .ARM.attributes
                0x00000000000000f8       0x33 ./lwip-1.4.1/netif/ppp/chpms.o
 .ARM.attributes
                0x000000000000012b       0x33 ./lwip-1.4.1/netif/ppp/fsm.o
 .ARM.attributes
                0x000000000000015e       0x33 ./lwip-1.4.1/netif/ppp/ipcp.o
 .ARM.attributes
                0x0000000000000191       0x33 ./lwip-1.4.1/netif/ppp/lcp.o
 .ARM.attributes
                0x00000000000001c4       0x33 ./lwip-1.4.1/netif/ppp/magic.o
 .ARM.attributes
                0x00000000000001f7       0x33 ./lwip-1.4.1/netif/ppp/md5.o
 .ARM.attributes
                0x000000000000022a       0x33 ./lwip-1.4.1/netif/ppp/pap.o
 .ARM.attributes
                0x000000000000025d       0x33 ./lwip-1.4.1/netif/ppp/ppp.o
 .ARM.attributes
                0x0000000000000290       0x33 ./lwip-1.4.1/netif/ppp/ppp_oe.o
 .ARM.attributes
                0x00000000000002c3       0x33 ./lwip-1.4.1/netif/ppp/randm.o
 .ARM.attributes
                0x00000000000002f6       0x33 ./lwip-1.4.1/netif/ppp/vj.o
 .ARM.attributes
                0x0000000000000329       0x2d ./lwip-1.4.1/netif/etharp.o
 .ARM.attributes
                0x0000000000000356       0x33 ./lwip-1.4.1/netif/ethernetif.o
 .ARM.attributes
                0x0000000000000389       0x2d ./lwip-1.4.1/netif/m2sxxx_ethernetif.o
 .ARM.attributes
                0x00000000000003b6       0x33 ./lwip-1.4.1/netif/slipif.o
 .ARM.attributes
                0x00000000000003e9       0x33 ./lwip-1.4.1/core/snmp/asn1_dec.o
 .ARM.attributes
                0x000000000000041c       0x33 ./lwip-1.4.1/core/snmp/asn1_enc.o
 .ARM.attributes
                0x000000000000044f       0x33 ./lwip-1.4.1/core/snmp/mib2.o
 .ARM.attributes
                0x0000000000000482       0x33 ./lwip-1.4.1/core/snmp/mib_structs.o
 .ARM.attributes
                0x00000000000004b5       0x33 ./lwip-1.4.1/core/snmp/msg_in.o
 .ARM.attributes
                0x00000000000004e8       0x33 ./lwip-1.4.1/core/snmp/msg_out.o
 .ARM.attributes
                0x000000000000051b       0x33 ./lwip-1.4.1/core/ipv4/autoip.o
 .ARM.attributes
                0x000000000000054e       0x2d ./lwip-1.4.1/core/ipv4/icmp.o
 .ARM.attributes
                0x000000000000057b       0x2d ./lwip-1.4.1/core/ipv4/igmp.o
 .ARM.attributes
                0x00000000000005a8       0x33 ./lwip-1.4.1/core/ipv4/inet.o
 .ARM.attributes
                0x00000000000005db       0x2d ./lwip-1.4.1/core/ipv4/inet_chksum.o
 .ARM.attributes
                0x0000000000000608       0x2d ./lwip-1.4.1/core/ipv4/ip.o
 .ARM.attributes
                0x0000000000000635       0x2d ./lwip-1.4.1/core/ipv4/ip_addr.o
 .ARM.attributes
                0x0000000000000662       0x2d ./lwip-1.4.1/core/ipv4/ip_frag.o
 .ARM.attributes
                0x000000000000068f       0x2d ./lwip-1.4.1/core/def.o
 .ARM.attributes
                0x00000000000006bc       0x2d ./lwip-1.4.1/core/dhcp.o
 .ARM.attributes
                0x00000000000006e9       0x33 ./lwip-1.4.1/core/dns.o
 .ARM.attributes
                0x000000000000071c       0x2d ./lwip-1.4.1/core/init.o
 .ARM.attributes
                0x0000000000000749       0x2d ./lwip-1.4.1/core/lwip_timers.o
 .ARM.attributes
                0x0000000000000776       0x2d ./lwip-1.4.1/core/mem.o
 .ARM.attributes
                0x00000000000007a3       0x2d ./lwip-1.4.1/core/memp.o
 .ARM.attributes
                0x00000000000007d0       0x2d ./lwip-1.4.1/core/netif.o
 .ARM.attributes
                0x00000000000007fd       0x2d ./lwip-1.4.1/core/pbuf.o
 .ARM.attributes
                0x000000000000082a       0x2d ./lwip-1.4.1/core/raw.o
 .ARM.attributes
                0x0000000000000857       0x33 ./lwip-1.4.1/core/stats.o
 .ARM.attributes
                0x000000000000088a       0x2d ./lwip-1.4.1/core/sys.o
 .ARM.attributes
                0x00000000000008b7       0x2d ./lwip-1.4.1/core/tcp.o
 .ARM.attributes
                0x00000000000008e4       0x2d ./lwip-1.4.1/core/tcp_in.o
 .ARM.attributes
                0x0000000000000911       0x2d ./lwip-1.4.1/core/tcp_out.o
 .ARM.attributes
                0x000000000000093e       0x2d ./lwip-1.4.1/core/udp.o
 .ARM.attributes
                0x000000000000096b       0x2d ./lwip-1.4.1/api/api_lib.o
 .ARM.attributes
                0x0000000000000998       0x2d ./lwip-1.4.1/api/api_msg.o
 .ARM.attributes
                0x00000000000009c5       0x33 ./lwip-1.4.1/api/err.o
 .ARM.attributes
                0x00000000000009f8       0x2d ./lwip-1.4.1/api/netbuf.o
 .ARM.attributes
                0x0000000000000a25       0x33 ./lwip-1.4.1/api/netdb.o
 .ARM.attributes
                0x0000000000000a58       0x33 ./lwip-1.4.1/api/netifapi.o
 .ARM.attributes
                0x0000000000000a8b       0x2d ./lwip-1.4.1/api/sockets.o
 .ARM.attributes
                0x0000000000000ab8       0x2d ./lwip-1.4.1/api/tcpip.o
 .ARM.attributes
                0x0000000000000ae5       0x1b ./hal/CortexM3/GNU/hal.o
 .ARM.attributes
                0x0000000000000b00       0x1b ./hal/CortexM3/GNU/hw_reg_access.o
 .ARM.attributes
                0x0000000000000b1b       0x2d ./hal/CortexM3/cortex_nvic.o
 .ARM.attributes
                0x0000000000000b48       0x33 ./drivers_config/sys_config/sys_config.o
 .ARM.attributes
                0x0000000000000b7b       0x33 ./drivers_config/sys_config/sys_config_SERDESIF_0.o
 .ARM.attributes
                0x0000000000000bae       0x2d ./drivers/mss_uart/mss_uart.o
 .ARM.attributes
                0x0000000000000bdb       0x2d ./drivers/mss_sys_services/mss_comblk.o
 .ARM.attributes
                0x0000000000000c08       0x2d ./drivers/mss_sys_services/mss_sys_services.o
 .ARM.attributes
                0x0000000000000c35       0x2d ./drivers/mss_spi/mss_spi.o
 .ARM.attributes
                0x0000000000000c62       0x2d ./drivers/mss_rtc/mss_rtc.o
 .ARM.attributes
                0x0000000000000c8f       0x2d ./drivers/mss_nvm/mss_nvm.o
 .ARM.attributes
                0x0000000000000cbc       0x2d ./drivers/mss_gpio/mss_gpio.o
 .ARM.attributes
                0x0000000000000ce9       0x2d ./drivers/mss_ethernet_mac/m88e1340_phy.o
 .ARM.attributes
                0x0000000000000d16       0x2d ./drivers/mss_ethernet_mac/mss_ethernet_mac.o
 .ARM.attributes
                0x0000000000000d43       0x2d ./WebServer/httpserver-netconn.o
 .ARM.attributes
                0x0000000000000d70       0x33 ./WebServer/mscc_logo.o
 .ARM.attributes
                0x0000000000000da3       0x2d ./FreeRTOS/portable/MemMang/heap_2.o
 .ARM.attributes
                0x0000000000000dd0       0x2d ./FreeRTOS/portable/GCC/ARM_CM3/port.o
 .ARM.attributes
                0x0000000000000dfd       0x2d ./FreeRTOS/croutine.o
 .ARM.attributes
                0x0000000000000e2a       0x2d ./FreeRTOS/list.o
 .ARM.attributes
                0x0000000000000e57       0x2d ./FreeRTOS/queue.o
 .ARM.attributes
                0x0000000000000e84       0x2d ./FreeRTOS/tasks.o
 .ARM.attributes
                0x0000000000000eb1       0x2d ./FreeRTOS/timers.o
 .ARM.attributes
                0x0000000000000ede       0x2d ./CMSIS/startup_gcc/newlib_stubs.o
 .ARM.attributes
                0x0000000000000f0b       0x21 ./CMSIS/startup_gcc/startup_m2sxxx.o
 .ARM.attributes
                0x0000000000000f2c       0x2d ./CMSIS/system_m2sxxx.o
 .ARM.attributes
                0x0000000000000f59       0x33 ./.metadata/.plugins/org.eclipse.cdt.make.core/specs.o
 .ARM.attributes
                0x0000000000000f8c       0x2d ./main.o
 .ARM.attributes
                0x0000000000000fb9       0x2d ./mscc_post_hw_cfg_init.o
 .ARM.attributes
                0x0000000000000fe6       0x2d ./sys_cfg.o
 .ARM.attributes
                0x0000000000001013       0x2d ./uart_task.o
 .ARM.attributes
                0x0000000000001040       0x2d /home/jerryneedell/Microchip/SoftConsole-v6.4/arm-none-eabi-gcc/bin/../lib/gcc/arm-none-eabi/9.2.1/../../../../arm-none-eabi/lib/thumb/v7-m/nofp/libg_nano.a(lib_a-assert.o)
 .ARM.attributes
                0x000000000000106d       0x2d /home/jerryneedell/Microchip/SoftConsole-v6.4/arm-none-eabi-gcc/bin/../lib/gcc/arm-none-eabi/9.2.1/../../../../arm-none-eabi/lib/thumb/v7-m/nofp/libg_nano.a(lib_a-errno.o)
 .ARM.attributes
                0x000000000000109a       0x2d /home/jerryneedell/Microchip/SoftConsole-v6.4/arm-none-eabi-gcc/bin/../lib/gcc/arm-none-eabi/9.2.1/../../../../arm-none-eabi/lib/thumb/v7-m/nofp/libg_nano.a(lib_a-exit.o)
 .ARM.attributes
                0x00000000000010c7       0x2d /home/jerryneedell/Microchip/SoftConsole-v6.4/arm-none-eabi-gcc/bin/../lib/gcc/arm-none-eabi/9.2.1/../../../../arm-none-eabi/lib/thumb/v7-m/nofp/libg_nano.a(lib_a-fprintf.o)
 .ARM.attributes
                0x00000000000010f4       0x2d /home/jerryneedell/Microchip/SoftConsole-v6.4/arm-none-eabi-gcc/bin/../lib/gcc/arm-none-eabi/9.2.1/../../../../arm-none-eabi/lib/thumb/v7-m/nofp/libg_nano.a(lib_a-impure.o)
 .ARM.attributes
                0x0000000000001121       0x2d /home/jerryneedell/Microchip/SoftConsole-v6.4/arm-none-eabi-gcc/bin/../lib/gcc/arm-none-eabi/9.2.1/../../../../arm-none-eabi/lib/thumb/v7-m/nofp/libg_nano.a(lib_a-init.o)
 .ARM.attributes
                0x000000000000114e       0x2d /home/jerryneedell/Microchip/SoftConsole-v6.4/arm-none-eabi-gcc/bin/../lib/gcc/arm-none-eabi/9.2.1/../../../../arm-none-eabi/lib/thumb/v7-m/nofp/libg_nano.a(lib_a-memcmp.o)
 .ARM.attributes
                0x000000000000117b       0x2d /home/jerryneedell/Microchip/SoftConsole-v6.4/arm-none-eabi-gcc/bin/../lib/gcc/arm-none-eabi/9.2.1/../../../../arm-none-eabi/lib/thumb/v7-m/nofp/libg_nano.a(lib_a-memcpy-stub.o)
 .ARM.attributes
                0x00000000000011a8       0x2d /home/jerryneedell/Microchip/SoftConsole-v6.4/arm-none-eabi-gcc/bin/../lib/gcc/arm-none-eabi/9.2.1/../../../../arm-none-eabi/lib/thumb/v7-m/nofp/libg_nano.a(lib_a-memset.o)
 .ARM.attributes
                0x00000000000011d5       0x2d /home/jerryneedell/Microchip/SoftConsole-v6.4/arm-none-eabi-gcc/bin/../lib/gcc/arm-none-eabi/9.2.1/../../../../arm-none-eabi/lib/thumb/v7-m/nofp/libg_nano.a(lib_a-nano-vfprintf.o)
 .ARM.attributes
                0x0000000000001202       0x2d /home/jerryneedell/Microchip/SoftConsole-v6.4/arm-none-eabi-gcc/bin/../lib/gcc/arm-none-eabi/9.2.1/../../../../arm-none-eabi/lib/thumb/v7-m/nofp/libg_nano.a(lib_a-nano-vfprintf_i.o)
 .ARM.attributes
                0x000000000000122f       0x2d /home/jerryneedell/Microchip/SoftConsole-v6.4/arm-none-eabi-gcc/bin/../lib/gcc/arm-none-eabi/9.2.1/../../../../arm-none-eabi/lib/thumb/v7-m/nofp/libg_nano.a(lib_a-snprintf.o)
 .ARM.attributes
                0x000000000000125c       0x2d /home/jerryneedell/Microchip/SoftConsole-v6.4/arm-none-eabi-gcc/bin/../lib/gcc/arm-none-eabi/9.2.1/../../../../arm-none-eabi/lib/thumb/v7-m/nofp/libg_nano.a(lib_a-sprintf.o)
 .ARM.attributes
                0x0000000000001289       0x2d /home/jerryneedell/Microchip/SoftConsole-v6.4/arm-none-eabi-gcc/bin/../lib/gcc/arm-none-eabi/9.2.1/../../../../arm-none-eabi/lib/thumb/v7-m/nofp/libg_nano.a(lib_a-strcat.o)
 .ARM.attributes
                0x00000000000012b6       0x17 /home/jerryneedell/Microchip/SoftConsole-v6.4/arm-none-eabi-gcc/bin/../lib/gcc/arm-none-eabi/9.2.1/../../../../arm-none-eabi/lib/thumb/v7-m/nofp/libg_nano.a(lib_a-strlen.o)
 .ARM.attributes
                0x00000000000012cd       0x2d /home/jerryneedell/Microchip/SoftConsole-v6.4/arm-none-eabi-gcc/bin/../lib/gcc/arm-none-eabi/9.2.1/../../../../arm-none-eabi/lib/thumb/v7-m/nofp/libg_nano.a(lib_a-strncpy.o)
 .ARM.attributes
                0x00000000000012fa       0x2d /home/jerryneedell/Microchip/SoftConsole-v6.4/arm-none-eabi-gcc/bin/../lib/gcc/arm-none-eabi/9.2.1/../../../../arm-none-eabi/lib/thumb/v7-m/nofp/libg_nano.a(lib_a-wbuf.o)
 .ARM.attributes
                0x0000000000001327       0x2d /home/jerryneedell/Microchip/SoftConsole-v6.4/arm-none-eabi-gcc/bin/../lib/gcc/arm-none-eabi/9.2.1/../../../../arm-none-eabi/lib/thumb/v7-m/nofp/libg_nano.a(lib_a-wsetup.o)
 .ARM.attributes
                0x0000000000001354       0x2d /home/jerryneedell/Microchip/SoftConsole-v6.4/arm-none-eabi-gcc/bin/../lib/gcc/arm-none-eabi/9.2.1/../../../../arm-none-eabi/lib/thumb/v7-m/nofp/libg_nano.a(lib_a-abort.o)
 .ARM.attributes
                0x0000000000001381       0x2d /home/jerryneedell/Microchip/SoftConsole-v6.4/arm-none-eabi-gcc/bin/../lib/gcc/arm-none-eabi/9.2.1/../../../../arm-none-eabi/lib/thumb/v7-m/nofp/libg_nano.a(lib_a-fflush.o)
 .ARM.attributes
                0x00000000000013ae       0x2d /home/jerryneedell/Microchip/SoftConsole-v6.4/arm-none-eabi-gcc/bin/../lib/gcc/arm-none-eabi/9.2.1/../../../../arm-none-eabi/lib/thumb/v7-m/nofp/libg_nano.a(lib_a-findfp.o)
 .ARM.attributes
                0x00000000000013db       0x2d /home/jerryneedell/Microchip/SoftConsole-v6.4/arm-none-eabi-gcc/bin/../lib/gcc/arm-none-eabi/9.2.1/../../../../arm-none-eabi/lib/thumb/v7-m/nofp/libg_nano.a(lib_a-fvwrite.o)
 .ARM.attributes
                0x0000000000001408       0x2d /home/jerryneedell/Microchip/SoftConsole-v6.4/arm-none-eabi-gcc/bin/../lib/gcc/arm-none-eabi/9.2.1/../../../../arm-none-eabi/lib/thumb/v7-m/nofp/libg_nano.a(lib_a-fwalk.o)
 .ARM.attributes
                0x0000000000001435       0x2d /home/jerryneedell/Microchip/SoftConsole-v6.4/arm-none-eabi-gcc/bin/../lib/gcc/arm-none-eabi/9.2.1/../../../../arm-none-eabi/lib/thumb/v7-m/nofp/libg_nano.a(lib_a-lock.o)
 .ARM.attributes
                0x0000000000001462       0x2d /home/jerryneedell/Microchip/SoftConsole-v6.4/arm-none-eabi-gcc/bin/../lib/gcc/arm-none-eabi/9.2.1/../../../../arm-none-eabi/lib/thumb/v7-m/nofp/libg_nano.a(lib_a-makebuf.o)
 .ARM.attributes
                0x000000000000148f       0x2d /home/jerryneedell/Microchip/SoftConsole-v6.4/arm-none-eabi-gcc/bin/../lib/gcc/arm-none-eabi/9.2.1/../../../../arm-none-eabi/lib/thumb/v7-m/nofp/libg_nano.a(lib_a-memchr-stub.o)
 .ARM.attributes
                0x00000000000014bc       0x2d /home/jerryneedell/Microchip/SoftConsole-v6.4/arm-none-eabi-gcc/bin/../lib/gcc/arm-none-eabi/9.2.1/../../../../arm-none-eabi/lib/thumb/v7-m/nofp/libg_nano.a(lib_a-memmove.o)
 .ARM.attributes
                0x00000000000014e9       0x2d /home/jerryneedell/Microchip/SoftConsole-v6.4/arm-none-eabi-gcc/bin/../lib/gcc/arm-none-eabi/9.2.1/../../../../arm-none-eabi/lib/thumb/v7-m/nofp/libg_nano.a(lib_a-nano-freer.o)
 .ARM.attributes
                0x0000000000001516       0x2d /home/jerryneedell/Microchip/SoftConsole-v6.4/arm-none-eabi-gcc/bin/../lib/gcc/arm-none-eabi/9.2.1/../../../../arm-none-eabi/lib/thumb/v7-m/nofp/libg_nano.a(lib_a-nano-mallocr.o)
 .ARM.attributes
                0x0000000000001543       0x2d /home/jerryneedell/Microchip/SoftConsole-v6.4/arm-none-eabi-gcc/bin/../lib/gcc/arm-none-eabi/9.2.1/../../../../arm-none-eabi/lib/thumb/v7-m/nofp/libg_nano.a(lib_a-nano-reallocr.o)
 .ARM.attributes
                0x0000000000001570       0x2d /home/jerryneedell/Microchip/SoftConsole-v6.4/arm-none-eabi-gcc/bin/../lib/gcc/arm-none-eabi/9.2.1/../../../../arm-none-eabi/lib/thumb/v7-m/nofp/libg_nano.a(lib_a-nano-svfprintf.o)
 .ARM.attributes
                0x000000000000159d       0x2d /home/jerryneedell/Microchip/SoftConsole-v6.4/arm-none-eabi-gcc/bin/../lib/gcc/arm-none-eabi/9.2.1/../../../../arm-none-eabi/lib/thumb/v7-m/nofp/libg_nano.a(lib_a-sbrkr.o)
 .ARM.attributes
                0x00000000000015ca       0x2d /home/jerryneedell/Microchip/SoftConsole-v6.4/arm-none-eabi-gcc/bin/../lib/gcc/arm-none-eabi/9.2.1/../../../../arm-none-eabi/lib/thumb/v7-m/nofp/libg_nano.a(lib_a-signal.o)
 .ARM.attributes
                0x00000000000015f7       0x2d /home/jerryneedell/Microchip/SoftConsole-v6.4/arm-none-eabi-gcc/bin/../lib/gcc/arm-none-eabi/9.2.1/../../../../arm-none-eabi/lib/thumb/v7-m/nofp/libg_nano.a(lib_a-signalr.o)
 .ARM.attributes
                0x0000000000001624       0x2d /home/jerryneedell/Microchip/SoftConsole-v6.4/arm-none-eabi-gcc/bin/../lib/gcc/arm-none-eabi/9.2.1/../../../../arm-none-eabi/lib/thumb/v7-m/nofp/libg_nano.a(lib_a-stdio.o)
 .ARM.attributes
                0x0000000000001651       0x2d /home/jerryneedell/Microchip/SoftConsole-v6.4/arm-none-eabi-gcc/bin/../lib/gcc/arm-none-eabi/9.2.1/../../../../arm-none-eabi/lib/thumb/v7-m/nofp/libg_nano.a(lib_a-closer.o)
 .ARM.attributes
                0x000000000000167e       0x2d /home/jerryneedell/Microchip/SoftConsole-v6.4/arm-none-eabi-gcc/bin/../lib/gcc/arm-none-eabi/9.2.1/../../../../arm-none-eabi/lib/thumb/v7-m/nofp/libg_nano.a(lib_a-fstatr.o)
 .ARM.attributes
                0x00000000000016ab       0x2d /home/jerryneedell/Microchip/SoftConsole-v6.4/arm-none-eabi-gcc/bin/../lib/gcc/arm-none-eabi/9.2.1/../../../../arm-none-eabi/lib/thumb/v7-m/nofp/libg_nano.a(lib_a-isattyr.o)
 .ARM.attributes
                0x00000000000016d8       0x2d /home/jerryneedell/Microchip/SoftConsole-v6.4/arm-none-eabi-gcc/bin/../lib/gcc/arm-none-eabi/9.2.1/../../../../arm-none-eabi/lib/thumb/v7-m/nofp/libg_nano.a(lib_a-lseekr.o)
 .ARM.attributes
                0x0000000000001705       0x2d /home/jerryneedell/Microchip/SoftConsole-v6.4/arm-none-eabi-gcc/bin/../lib/gcc/arm-none-eabi/9.2.1/../../../../arm-none-eabi/lib/thumb/v7-m/nofp/libg_nano.a(lib_a-mlock.o)
 .ARM.attributes
                0x0000000000001732       0x2d /home/jerryneedell/Microchip/SoftConsole-v6.4/arm-none-eabi-gcc/bin/../lib/gcc/arm-none-eabi/9.2.1/../../../../arm-none-eabi/lib/thumb/v7-m/nofp/libg_nano.a(lib_a-nano-msizer.o)
 .ARM.attributes
                0x000000000000175f       0x2d /home/jerryneedell/Microchip/SoftConsole-v6.4/arm-none-eabi-gcc/bin/../lib/gcc/arm-none-eabi/9.2.1/../../../../arm-none-eabi/lib/thumb/v7-m/nofp/libg_nano.a(lib_a-readr.o)
 .ARM.attributes
                0x000000000000178c       0x2d /home/jerryneedell/Microchip/SoftConsole-v6.4/arm-none-eabi-gcc/bin/../lib/gcc/arm-none-eabi/9.2.1/../../../../arm-none-eabi/lib/thumb/v7-m/nofp/libg_nano.a(lib_a-reent.o)
 .ARM.attributes
                0x00000000000017b9       0x2d /home/jerryneedell/Microchip/SoftConsole-v6.4/arm-none-eabi-gcc/bin/../lib/gcc/arm-none-eabi/9.2.1/thumb/v7-m/nofp/crtend.o
 .ARM.attributes
                0x00000000000017e6       0x1d /home/jerryneedell/Microchip/SoftConsole-v6.4/arm-none-eabi-gcc/bin/../lib/gcc/arm-none-eabi/9.2.1/thumb/v7-m/nofp/crtn.o

/DISCARD/
 *(.note.GNU-stack)
OUTPUT(Webserver.elf elf32-littlearm)

.debug_ranges   0x0000000000000000     0x4fa0
 .debug_ranges  0x0000000000000000       0xb8 ./lwip-1.4.1/port/FreeRTOS/M2SXXX/sys_arch.o
 .debug_ranges  0x00000000000000b8      0x380 ./lwip-1.4.1/netif/etharp.o
 .debug_ranges  0x0000000000000438       0x88 ./lwip-1.4.1/netif/m2sxxx_ethernetif.o
 .debug_ranges  0x00000000000004c0      0x148 ./lwip-1.4.1/core/ipv4/icmp.o
 .debug_ranges  0x0000000000000608      0x138 ./lwip-1.4.1/core/ipv4/igmp.o
 .debug_ranges  0x0000000000000740       0x50 ./lwip-1.4.1/core/ipv4/inet_chksum.o
 .debug_ranges  0x0000000000000790      0x108 ./lwip-1.4.1/core/ipv4/ip.o
 .debug_ranges  0x0000000000000898       0x50 ./lwip-1.4.1/core/ipv4/ip_addr.o
 .debug_ranges  0x00000000000008e8      0x290 ./lwip-1.4.1/core/ipv4/ip_frag.o
 .debug_ranges  0x0000000000000b78       0x28 ./lwip-1.4.1/core/def.o
 .debug_ranges  0x0000000000000ba0      0x610 ./lwip-1.4.1/core/dhcp.o
 .debug_ranges  0x00000000000011b0       0x10 ./lwip-1.4.1/core/init.o
 .debug_ranges  0x00000000000011c0       0x78 ./lwip-1.4.1/core/lwip_timers.o
 .debug_ranges  0x0000000000001238      0x1e0 ./lwip-1.4.1/core/mem.o
 .debug_ranges  0x0000000000001418       0xa0 ./lwip-1.4.1/core/memp.o
 .debug_ranges  0x00000000000014b8       0xe8 ./lwip-1.4.1/core/netif.o
 .debug_ranges  0x00000000000015a0      0x670 ./lwip-1.4.1/core/pbuf.o
 .debug_ranges  0x0000000000001c10       0x60 ./lwip-1.4.1/core/raw.o
 .debug_ranges  0x0000000000001c70       0x28 ./lwip-1.4.1/core/sys.o
 .debug_ranges  0x0000000000001c98      0x450 ./lwip-1.4.1/core/tcp.o
 .debug_ranges  0x00000000000020e8      0x408 ./lwip-1.4.1/core/tcp_in.o
 .debug_ranges  0x00000000000024f0      0x450 ./lwip-1.4.1/core/tcp_out.o
 .debug_ranges  0x0000000000002940      0x118 ./lwip-1.4.1/core/udp.o
 .debug_ranges  0x0000000000002a58      0x378 ./lwip-1.4.1/api/api_lib.o
 .debug_ranges  0x0000000000002dd0      0x608 ./lwip-1.4.1/api/api_msg.o
 .debug_ranges  0x00000000000033d8      0x178 ./lwip-1.4.1/api/netbuf.o
 .debug_ranges  0x0000000000003550      0x668 ./lwip-1.4.1/api/sockets.o
 .debug_ranges  0x0000000000003bb8       0xb8 ./lwip-1.4.1/api/tcpip.o
 .debug_ranges  0x0000000000003c70      0x8a8 ./drivers/mss_uart/mss_uart.o
 .debug_ranges  0x0000000000004518       0x88 ./drivers/mss_sys_services/mss_comblk.o
 .debug_ranges  0x00000000000045a0       0xd0 ./drivers/mss_spi/mss_spi.o
 .debug_ranges  0x0000000000004670       0x28 ./drivers/mss_ethernet_mac/m88e1340_phy.o
 .debug_ranges  0x0000000000004698      0x208 ./drivers/mss_ethernet_mac/mss_ethernet_mac.o
 .debug_ranges  0x00000000000048a0       0x68 ./WebServer/httpserver-netconn.o
 .debug_ranges  0x0000000000004908       0x28 ./FreeRTOS/portable/MemMang/heap_2.o
 .debug_ranges  0x0000000000004930       0x58 ./FreeRTOS/portable/GCC/ARM_CM3/port.o
 .debug_ranges  0x0000000000004988       0x30 ./FreeRTOS/list.o
 .debug_ranges  0x00000000000049b8       0x90 ./FreeRTOS/queue.o
 .debug_ranges  0x0000000000004a48      0x248 ./FreeRTOS/tasks.o
 .debug_ranges  0x0000000000004c90       0xb0 ./FreeRTOS/timers.o
 .debug_ranges  0x0000000000004d40       0x98 ./CMSIS/startup_gcc/newlib_stubs.o
 .debug_ranges  0x0000000000004dd8       0x80 ./CMSIS/system_m2sxxx.o
 .debug_ranges  0x0000000000004e58       0x70 ./main.o
 .debug_ranges  0x0000000000004ec8       0x10 ./mscc_post_hw_cfg_init.o
 .debug_ranges  0x0000000000004ed8       0x20 ./sys_cfg.o
 .debug_ranges  0x0000000000004ef8       0xa8 ./uart_task.o

.comment        0x0000000000000000       0x66
 .comment       0x0000000000000000       0x66 ./lwip-1.4.1/port/FreeRTOS/M2SXXX/sys_arch.o
                                         0x67 (size before relaxing)
 .comment       0x0000000000000066       0x67 ./lwip-1.4.1/netif/etharp.o
 .comment       0x0000000000000066       0x67 ./lwip-1.4.1/netif/m2sxxx_ethernetif.o
 .comment       0x0000000000000066       0x67 ./lwip-1.4.1/core/ipv4/icmp.o
 .comment       0x0000000000000066       0x67 ./lwip-1.4.1/core/ipv4/igmp.o
 .comment       0x0000000000000066       0x67 ./lwip-1.4.1/core/ipv4/inet_chksum.o
 .comment       0x0000000000000066       0x67 ./lwip-1.4.1/core/ipv4/ip.o
 .comment       0x0000000000000066       0x67 ./lwip-1.4.1/core/ipv4/ip_addr.o
 .comment       0x0000000000000066       0x67 ./lwip-1.4.1/core/ipv4/ip_frag.o
 .comment       0x0000000000000066       0x67 ./lwip-1.4.1/core/def.o
 .comment       0x0000000000000066       0x67 ./lwip-1.4.1/core/dhcp.o
 .comment       0x0000000000000066       0x67 ./lwip-1.4.1/core/init.o
 .comment       0x0000000000000066       0x67 ./lwip-1.4.1/core/lwip_timers.o
 .comment       0x0000000000000066       0x67 ./lwip-1.4.1/core/mem.o
 .comment       0x0000000000000066       0x67 ./lwip-1.4.1/core/memp.o
 .comment       0x0000000000000066       0x67 ./lwip-1.4.1/core/netif.o
 .comment       0x0000000000000066       0x67 ./lwip-1.4.1/core/pbuf.o
 .comment       0x0000000000000066       0x67 ./lwip-1.4.1/core/raw.o
 .comment       0x0000000000000066       0x67 ./lwip-1.4.1/core/sys.o
 .comment       0x0000000000000066       0x67 ./lwip-1.4.1/core/tcp.o
 .comment       0x0000000000000066       0x67 ./lwip-1.4.1/core/tcp_in.o
 .comment       0x0000000000000066       0x67 ./lwip-1.4.1/core/tcp_out.o
 .comment       0x0000000000000066       0x67 ./lwip-1.4.1/core/udp.o
 .comment       0x0000000000000066       0x67 ./lwip-1.4.1/api/api_lib.o
 .comment       0x0000000000000066       0x67 ./lwip-1.4.1/api/api_msg.o
 .comment       0x0000000000000066       0x67 ./lwip-1.4.1/api/netbuf.o
 .comment       0x0000000000000066       0x67 ./lwip-1.4.1/api/sockets.o
 .comment       0x0000000000000066       0x67 ./lwip-1.4.1/api/tcpip.o
 .comment       0x0000000000000066       0x67 ./drivers_config/sys_config/sys_config_SERDESIF_0.o
 .comment       0x0000000000000066       0x67 ./drivers/mss_uart/mss_uart.o
 .comment       0x0000000000000066       0x67 ./drivers/mss_sys_services/mss_comblk.o
 .comment       0x0000000000000066       0x67 ./drivers/mss_spi/mss_spi.o
 .comment       0x0000000000000066       0x67 ./drivers/mss_ethernet_mac/m88e1340_phy.o
 .comment       0x0000000000000066       0x67 ./drivers/mss_ethernet_mac/mss_ethernet_mac.o
 .comment       0x0000000000000066       0x67 ./WebServer/httpserver-netconn.o
 .comment       0x0000000000000066       0x67 ./WebServer/mscc_logo.o
 .comment       0x0000000000000066       0x67 ./FreeRTOS/portable/MemMang/heap_2.o
 .comment       0x0000000000000066       0x67 ./FreeRTOS/portable/GCC/ARM_CM3/port.o
 .comment       0x0000000000000066       0x67 ./FreeRTOS/list.o
 .comment       0x0000000000000066       0x67 ./FreeRTOS/queue.o
 .comment       0x0000000000000066       0x67 ./FreeRTOS/tasks.o
 .comment       0x0000000000000066       0x67 ./FreeRTOS/timers.o
 .comment       0x0000000000000066       0x67 ./CMSIS/startup_gcc/newlib_stubs.o
 .comment       0x0000000000000066       0x67 ./CMSIS/system_m2sxxx.o
 .comment       0x0000000000000066       0x67 ./main.o
 .comment       0x0000000000000066       0x67 ./mscc_post_hw_cfg_init.o
 .comment       0x0000000000000066       0x67 ./sys_cfg.o
 .comment       0x0000000000000066       0x67 ./uart_task.o
